(lp1
(F40.538266
F-74.245061120000003
tp2
a(F40.542126789999998
F-74.245061120000003
tp3
a(F40.545987579999995
F-74.245061120000003
tp4
a(F40.549848369999992
F-74.245061120000003
tp5
a(F40.538266
F-74.239210900000003
tp6
a(F40.542126789999998
F-74.239210900000003
tp7
a(F40.545987579999995
F-74.239210900000003
tp8
a(F40.549848369999992
F-74.239210900000003
tp9
a(F40.55370915999999
F-74.239210900000003
tp10
a(F40.538266
F-74.233360680000004
tp11
a(F40.542126789999998
F-74.233360680000004
tp12
a(F40.545987579999995
F-74.233360680000004
tp13
a(F40.549848369999992
F-74.233360680000004
tp14
a(F40.55370915999999
F-74.233360680000004
tp15
a(F40.538266
F-74.227510460000005
tp16
a(F40.542126789999998
F-74.227510460000005
tp17
a(F40.545987579999995
F-74.227510460000005
tp18
a(F40.549848369999992
F-74.227510460000005
tp19
a(F40.55370915999999
F-74.227510460000005
tp20
a(F40.557569949999987
F-74.227510460000005
tp21
a(F40.538266
F-74.221660240000006
tp22
a(F40.542126789999998
F-74.221660240000006
tp23
a(F40.545987579999995
F-74.221660240000006
tp24
a(F40.549848369999992
F-74.221660240000006
tp25
a(F40.55370915999999
F-74.221660240000006
tp26
a(F40.538266
F-74.215810020000006
tp27
a(F40.542126789999998
F-74.215810020000006
tp28
a(F40.545987579999995
F-74.215810020000006
tp29
a(F40.549848369999992
F-74.215810020000006
tp30
a(F40.55370915999999
F-74.215810020000006
tp31
a(F40.557569949999987
F-74.215810020000006
tp32
a(F40.538266
F-74.209959800000007
tp33
a(F40.542126789999998
F-74.209959800000007
tp34
a(F40.545987579999995
F-74.209959800000007
tp35
a(F40.549848369999992
F-74.209959800000007
tp36
a(F40.55370915999999
F-74.209959800000007
tp37
a(F40.557569949999987
F-74.209959800000007
tp38
a(F40.561430739999984
F-74.209959800000007
tp39
a(F40.565291529999982
F-74.209959800000007
tp40
a(F40.569152319999979
F-74.209959800000007
tp41
a(F40.573013109999977
F-74.209959800000007
tp42
a(F40.538266
F-74.204109580000008
tp43
a(F40.542126789999998
F-74.204109580000008
tp44
a(F40.545987579999995
F-74.204109580000008
tp45
a(F40.549848369999992
F-74.204109580000008
tp46
a(F40.55370915999999
F-74.204109580000008
tp47
a(F40.557569949999987
F-74.204109580000008
tp48
a(F40.561430739999984
F-74.204109580000008
tp49
a(F40.565291529999982
F-74.204109580000008
tp50
a(F40.569152319999979
F-74.204109580000008
tp51
a(F40.573013109999977
F-74.204109580000008
tp52
a(F40.576873899999974
F-74.204109580000008
tp53
a(F40.580734689999971
F-74.204109580000008
tp54
a(F40.584595479999969
F-74.204109580000008
tp55
a(F40.588456269999966
F-74.204109580000008
tp56
a(F40.538266
F-74.198259360000009
tp57
a(F40.542126789999998
F-74.198259360000009
tp58
a(F40.545987579999995
F-74.198259360000009
tp59
a(F40.549848369999992
F-74.198259360000009
tp60
a(F40.55370915999999
F-74.198259360000009
tp61
a(F40.557569949999987
F-74.198259360000009
tp62
a(F40.561430739999984
F-74.198259360000009
tp63
a(F40.565291529999982
F-74.198259360000009
tp64
a(F40.569152319999979
F-74.198259360000009
tp65
a(F40.573013109999977
F-74.198259360000009
tp66
a(F40.576873899999974
F-74.198259360000009
tp67
a(F40.580734689999971
F-74.198259360000009
tp68
a(F40.584595479999969
F-74.198259360000009
tp69
a(F40.588456269999966
F-74.198259360000009
tp70
a(F40.592317059999964
F-74.198259360000009
tp71
a(F40.596177849999961
F-74.198259360000009
tp72
a(F40.600038639999958
F-74.198259360000009
tp73
a(F40.603899429999956
F-74.198259360000009
tp74
a(F40.607760219999953
F-74.198259360000009
tp75
a(F40.611621009999951
F-74.198259360000009
tp76
a(F40.615481799999948
F-74.198259360000009
tp77
a(F40.619342589999945
F-74.198259360000009
tp78
a(F40.623203379999943
F-74.198259360000009
tp79
a(F40.62706416999994
F-74.198259360000009
tp80
a(F40.630924959999938
F-74.198259360000009
tp81
a(F40.538266
F-74.192409140000009
tp82
a(F40.542126789999998
F-74.192409140000009
tp83
a(F40.545987579999995
F-74.192409140000009
tp84
a(F40.549848369999992
F-74.192409140000009
tp85
a(F40.55370915999999
F-74.192409140000009
tp86
a(F40.557569949999987
F-74.192409140000009
tp87
a(F40.561430739999984
F-74.192409140000009
tp88
a(F40.565291529999982
F-74.192409140000009
tp89
a(F40.569152319999979
F-74.192409140000009
tp90
a(F40.573013109999977
F-74.192409140000009
tp91
a(F40.576873899999974
F-74.192409140000009
tp92
a(F40.580734689999971
F-74.192409140000009
tp93
a(F40.584595479999969
F-74.192409140000009
tp94
a(F40.588456269999966
F-74.192409140000009
tp95
a(F40.592317059999964
F-74.192409140000009
tp96
a(F40.596177849999961
F-74.192409140000009
tp97
a(F40.600038639999958
F-74.192409140000009
tp98
a(F40.603899429999956
F-74.192409140000009
tp99
a(F40.607760219999953
F-74.192409140000009
tp100
a(F40.611621009999951
F-74.192409140000009
tp101
a(F40.615481799999948
F-74.192409140000009
tp102
a(F40.619342589999945
F-74.192409140000009
tp103
a(F40.623203379999943
F-74.192409140000009
tp104
a(F40.62706416999994
F-74.192409140000009
tp105
a(F40.630924959999938
F-74.192409140000009
tp106
a(F40.634785749999935
F-74.192409140000009
tp107
a(F40.638646539999932
F-74.192409140000009
tp108
a(F40.538266
F-74.18655892000001
tp109
a(F40.542126789999998
F-74.18655892000001
tp110
a(F40.545987579999995
F-74.18655892000001
tp111
a(F40.549848369999992
F-74.18655892000001
tp112
a(F40.55370915999999
F-74.18655892000001
tp113
a(F40.557569949999987
F-74.18655892000001
tp114
a(F40.561430739999984
F-74.18655892000001
tp115
a(F40.565291529999982
F-74.18655892000001
tp116
a(F40.569152319999979
F-74.18655892000001
tp117
a(F40.573013109999977
F-74.18655892000001
tp118
a(F40.576873899999974
F-74.18655892000001
tp119
a(F40.580734689999971
F-74.18655892000001
tp120
a(F40.584595479999969
F-74.18655892000001
tp121
a(F40.588456269999966
F-74.18655892000001
tp122
a(F40.592317059999964
F-74.18655892000001
tp123
a(F40.596177849999961
F-74.18655892000001
tp124
a(F40.600038639999958
F-74.18655892000001
tp125
a(F40.603899429999956
F-74.18655892000001
tp126
a(F40.607760219999953
F-74.18655892000001
tp127
a(F40.611621009999951
F-74.18655892000001
tp128
a(F40.615481799999948
F-74.18655892000001
tp129
a(F40.619342589999945
F-74.18655892000001
tp130
a(F40.623203379999943
F-74.18655892000001
tp131
a(F40.62706416999994
F-74.18655892000001
tp132
a(F40.630924959999938
F-74.18655892000001
tp133
a(F40.634785749999935
F-74.18655892000001
tp134
a(F40.638646539999932
F-74.18655892000001
tp135
a(F40.64250732999993
F-74.18655892000001
tp136
a(F40.538266
F-74.180708700000011
tp137
a(F40.542126789999998
F-74.180708700000011
tp138
a(F40.545987579999995
F-74.180708700000011
tp139
a(F40.549848369999992
F-74.180708700000011
tp140
a(F40.55370915999999
F-74.180708700000011
tp141
a(F40.557569949999987
F-74.180708700000011
tp142
a(F40.561430739999984
F-74.180708700000011
tp143
a(F40.565291529999982
F-74.180708700000011
tp144
a(F40.569152319999979
F-74.180708700000011
tp145
a(F40.573013109999977
F-74.180708700000011
tp146
a(F40.576873899999974
F-74.180708700000011
tp147
a(F40.580734689999971
F-74.180708700000011
tp148
a(F40.584595479999969
F-74.180708700000011
tp149
a(F40.588456269999966
F-74.180708700000011
tp150
a(F40.592317059999964
F-74.180708700000011
tp151
a(F40.596177849999961
F-74.180708700000011
tp152
a(F40.600038639999958
F-74.180708700000011
tp153
a(F40.603899429999956
F-74.180708700000011
tp154
a(F40.607760219999953
F-74.180708700000011
tp155
a(F40.611621009999951
F-74.180708700000011
tp156
a(F40.615481799999948
F-74.180708700000011
tp157
a(F40.619342589999945
F-74.180708700000011
tp158
a(F40.623203379999943
F-74.180708700000011
tp159
a(F40.62706416999994
F-74.180708700000011
tp160
a(F40.630924959999938
F-74.180708700000011
tp161
a(F40.634785749999935
F-74.180708700000011
tp162
a(F40.638646539999932
F-74.180708700000011
tp163
a(F40.64250732999993
F-74.180708700000011
tp164
a(F40.646368119999927
F-74.180708700000011
tp165
a(F40.538266
F-74.174858480000012
tp166
a(F40.542126789999998
F-74.174858480000012
tp167
a(F40.545987579999995
F-74.174858480000012
tp168
a(F40.549848369999992
F-74.174858480000012
tp169
a(F40.55370915999999
F-74.174858480000012
tp170
a(F40.557569949999987
F-74.174858480000012
tp171
a(F40.561430739999984
F-74.174858480000012
tp172
a(F40.565291529999982
F-74.174858480000012
tp173
a(F40.569152319999979
F-74.174858480000012
tp174
a(F40.573013109999977
F-74.174858480000012
tp175
a(F40.576873899999974
F-74.174858480000012
tp176
a(F40.580734689999971
F-74.174858480000012
tp177
a(F40.584595479999969
F-74.174858480000012
tp178
a(F40.588456269999966
F-74.174858480000012
tp179
a(F40.592317059999964
F-74.174858480000012
tp180
a(F40.596177849999961
F-74.174858480000012
tp181
a(F40.600038639999958
F-74.174858480000012
tp182
a(F40.603899429999956
F-74.174858480000012
tp183
a(F40.607760219999953
F-74.174858480000012
tp184
a(F40.611621009999951
F-74.174858480000012
tp185
a(F40.615481799999948
F-74.174858480000012
tp186
a(F40.619342589999945
F-74.174858480000012
tp187
a(F40.623203379999943
F-74.174858480000012
tp188
a(F40.62706416999994
F-74.174858480000012
tp189
a(F40.630924959999938
F-74.174858480000012
tp190
a(F40.634785749999935
F-74.174858480000012
tp191
a(F40.638646539999932
F-74.174858480000012
tp192
a(F40.64250732999993
F-74.174858480000012
tp193
a(F40.538266
F-74.169008260000012
tp194
a(F40.542126789999998
F-74.169008260000012
tp195
a(F40.545987579999995
F-74.169008260000012
tp196
a(F40.549848369999992
F-74.169008260000012
tp197
a(F40.55370915999999
F-74.169008260000012
tp198
a(F40.557569949999987
F-74.169008260000012
tp199
a(F40.561430739999984
F-74.169008260000012
tp200
a(F40.565291529999982
F-74.169008260000012
tp201
a(F40.569152319999979
F-74.169008260000012
tp202
a(F40.573013109999977
F-74.169008260000012
tp203
a(F40.576873899999974
F-74.169008260000012
tp204
a(F40.580734689999971
F-74.169008260000012
tp205
a(F40.584595479999969
F-74.169008260000012
tp206
a(F40.588456269999966
F-74.169008260000012
tp207
a(F40.592317059999964
F-74.169008260000012
tp208
a(F40.596177849999961
F-74.169008260000012
tp209
a(F40.600038639999958
F-74.169008260000012
tp210
a(F40.603899429999956
F-74.169008260000012
tp211
a(F40.607760219999953
F-74.169008260000012
tp212
a(F40.611621009999951
F-74.169008260000012
tp213
a(F40.615481799999948
F-74.169008260000012
tp214
a(F40.619342589999945
F-74.169008260000012
tp215
a(F40.623203379999943
F-74.169008260000012
tp216
a(F40.62706416999994
F-74.169008260000012
tp217
a(F40.630924959999938
F-74.169008260000012
tp218
a(F40.634785749999935
F-74.169008260000012
tp219
a(F40.638646539999932
F-74.169008260000012
tp220
a(F40.64250732999993
F-74.169008260000012
tp221
a(F40.538266
F-74.163158040000013
tp222
a(F40.542126789999998
F-74.163158040000013
tp223
a(F40.545987579999995
F-74.163158040000013
tp224
a(F40.549848369999992
F-74.163158040000013
tp225
a(F40.55370915999999
F-74.163158040000013
tp226
a(F40.557569949999987
F-74.163158040000013
tp227
a(F40.561430739999984
F-74.163158040000013
tp228
a(F40.565291529999982
F-74.163158040000013
tp229
a(F40.569152319999979
F-74.163158040000013
tp230
a(F40.573013109999977
F-74.163158040000013
tp231
a(F40.576873899999974
F-74.163158040000013
tp232
a(F40.580734689999971
F-74.163158040000013
tp233
a(F40.584595479999969
F-74.163158040000013
tp234
a(F40.588456269999966
F-74.163158040000013
tp235
a(F40.592317059999964
F-74.163158040000013
tp236
a(F40.596177849999961
F-74.163158040000013
tp237
a(F40.600038639999958
F-74.163158040000013
tp238
a(F40.603899429999956
F-74.163158040000013
tp239
a(F40.607760219999953
F-74.163158040000013
tp240
a(F40.611621009999951
F-74.163158040000013
tp241
a(F40.615481799999948
F-74.163158040000013
tp242
a(F40.619342589999945
F-74.163158040000013
tp243
a(F40.623203379999943
F-74.163158040000013
tp244
a(F40.62706416999994
F-74.163158040000013
tp245
a(F40.630924959999938
F-74.163158040000013
tp246
a(F40.634785749999935
F-74.163158040000013
tp247
a(F40.638646539999932
F-74.163158040000013
tp248
a(F40.64250732999993
F-74.163158040000013
tp249
a(F40.538266
F-74.157307820000014
tp250
a(F40.542126789999998
F-74.157307820000014
tp251
a(F40.545987579999995
F-74.157307820000014
tp252
a(F40.549848369999992
F-74.157307820000014
tp253
a(F40.55370915999999
F-74.157307820000014
tp254
a(F40.557569949999987
F-74.157307820000014
tp255
a(F40.561430739999984
F-74.157307820000014
tp256
a(F40.565291529999982
F-74.157307820000014
tp257
a(F40.569152319999979
F-74.157307820000014
tp258
a(F40.573013109999977
F-74.157307820000014
tp259
a(F40.576873899999974
F-74.157307820000014
tp260
a(F40.580734689999971
F-74.157307820000014
tp261
a(F40.584595479999969
F-74.157307820000014
tp262
a(F40.588456269999966
F-74.157307820000014
tp263
a(F40.592317059999964
F-74.157307820000014
tp264
a(F40.596177849999961
F-74.157307820000014
tp265
a(F40.600038639999958
F-74.157307820000014
tp266
a(F40.603899429999956
F-74.157307820000014
tp267
a(F40.607760219999953
F-74.157307820000014
tp268
a(F40.611621009999951
F-74.157307820000014
tp269
a(F40.615481799999948
F-74.157307820000014
tp270
a(F40.619342589999945
F-74.157307820000014
tp271
a(F40.623203379999943
F-74.157307820000014
tp272
a(F40.62706416999994
F-74.157307820000014
tp273
a(F40.630924959999938
F-74.157307820000014
tp274
a(F40.634785749999935
F-74.157307820000014
tp275
a(F40.638646539999932
F-74.157307820000014
tp276
a(F40.64250732999993
F-74.157307820000014
tp277
a(F40.538266
F-74.151457600000015
tp278
a(F40.542126789999998
F-74.151457600000015
tp279
a(F40.545987579999995
F-74.151457600000015
tp280
a(F40.549848369999992
F-74.151457600000015
tp281
a(F40.55370915999999
F-74.151457600000015
tp282
a(F40.557569949999987
F-74.151457600000015
tp283
a(F40.561430739999984
F-74.151457600000015
tp284
a(F40.565291529999982
F-74.151457600000015
tp285
a(F40.569152319999979
F-74.151457600000015
tp286
a(F40.573013109999977
F-74.151457600000015
tp287
a(F40.576873899999974
F-74.151457600000015
tp288
a(F40.580734689999971
F-74.151457600000015
tp289
a(F40.584595479999969
F-74.151457600000015
tp290
a(F40.588456269999966
F-74.151457600000015
tp291
a(F40.592317059999964
F-74.151457600000015
tp292
a(F40.596177849999961
F-74.151457600000015
tp293
a(F40.600038639999958
F-74.151457600000015
tp294
a(F40.603899429999956
F-74.151457600000015
tp295
a(F40.607760219999953
F-74.151457600000015
tp296
a(F40.611621009999951
F-74.151457600000015
tp297
a(F40.615481799999948
F-74.151457600000015
tp298
a(F40.619342589999945
F-74.151457600000015
tp299
a(F40.623203379999943
F-74.151457600000015
tp300
a(F40.62706416999994
F-74.151457600000015
tp301
a(F40.630924959999938
F-74.151457600000015
tp302
a(F40.634785749999935
F-74.151457600000015
tp303
a(F40.638646539999932
F-74.151457600000015
tp304
a(F40.64250732999993
F-74.151457600000015
tp305
a(F40.538266
F-74.145607380000015
tp306
a(F40.542126789999998
F-74.145607380000015
tp307
a(F40.545987579999995
F-74.145607380000015
tp308
a(F40.549848369999992
F-74.145607380000015
tp309
a(F40.55370915999999
F-74.145607380000015
tp310
a(F40.557569949999987
F-74.145607380000015
tp311
a(F40.561430739999984
F-74.145607380000015
tp312
a(F40.565291529999982
F-74.145607380000015
tp313
a(F40.569152319999979
F-74.145607380000015
tp314
a(F40.573013109999977
F-74.145607380000015
tp315
a(F40.576873899999974
F-74.145607380000015
tp316
a(F40.580734689999971
F-74.145607380000015
tp317
a(F40.584595479999969
F-74.145607380000015
tp318
a(F40.588456269999966
F-74.145607380000015
tp319
a(F40.592317059999964
F-74.145607380000015
tp320
a(F40.596177849999961
F-74.145607380000015
tp321
a(F40.600038639999958
F-74.145607380000015
tp322
a(F40.603899429999956
F-74.145607380000015
tp323
a(F40.607760219999953
F-74.145607380000015
tp324
a(F40.611621009999951
F-74.145607380000015
tp325
a(F40.615481799999948
F-74.145607380000015
tp326
a(F40.619342589999945
F-74.145607380000015
tp327
a(F40.623203379999943
F-74.145607380000015
tp328
a(F40.62706416999994
F-74.145607380000015
tp329
a(F40.630924959999938
F-74.145607380000015
tp330
a(F40.634785749999935
F-74.145607380000015
tp331
a(F40.638646539999932
F-74.145607380000015
tp332
a(F40.538266
F-74.139757160000016
tp333
a(F40.542126789999998
F-74.139757160000016
tp334
a(F40.545987579999995
F-74.139757160000016
tp335
a(F40.549848369999992
F-74.139757160000016
tp336
a(F40.55370915999999
F-74.139757160000016
tp337
a(F40.557569949999987
F-74.139757160000016
tp338
a(F40.561430739999984
F-74.139757160000016
tp339
a(F40.565291529999982
F-74.139757160000016
tp340
a(F40.569152319999979
F-74.139757160000016
tp341
a(F40.573013109999977
F-74.139757160000016
tp342
a(F40.576873899999974
F-74.139757160000016
tp343
a(F40.580734689999971
F-74.139757160000016
tp344
a(F40.584595479999969
F-74.139757160000016
tp345
a(F40.588456269999966
F-74.139757160000016
tp346
a(F40.592317059999964
F-74.139757160000016
tp347
a(F40.596177849999961
F-74.139757160000016
tp348
a(F40.600038639999958
F-74.139757160000016
tp349
a(F40.603899429999956
F-74.139757160000016
tp350
a(F40.607760219999953
F-74.139757160000016
tp351
a(F40.611621009999951
F-74.139757160000016
tp352
a(F40.615481799999948
F-74.139757160000016
tp353
a(F40.619342589999945
F-74.139757160000016
tp354
a(F40.623203379999943
F-74.139757160000016
tp355
a(F40.62706416999994
F-74.139757160000016
tp356
a(F40.630924959999938
F-74.139757160000016
tp357
a(F40.634785749999935
F-74.139757160000016
tp358
a(F40.638646539999932
F-74.139757160000016
tp359
a(F40.64250732999993
F-74.139757160000016
tp360
a(F40.538266
F-74.133906940000017
tp361
a(F40.542126789999998
F-74.133906940000017
tp362
a(F40.545987579999995
F-74.133906940000017
tp363
a(F40.549848369999992
F-74.133906940000017
tp364
a(F40.55370915999999
F-74.133906940000017
tp365
a(F40.557569949999987
F-74.133906940000017
tp366
a(F40.561430739999984
F-74.133906940000017
tp367
a(F40.565291529999982
F-74.133906940000017
tp368
a(F40.569152319999979
F-74.133906940000017
tp369
a(F40.573013109999977
F-74.133906940000017
tp370
a(F40.576873899999974
F-74.133906940000017
tp371
a(F40.580734689999971
F-74.133906940000017
tp372
a(F40.584595479999969
F-74.133906940000017
tp373
a(F40.588456269999966
F-74.133906940000017
tp374
a(F40.592317059999964
F-74.133906940000017
tp375
a(F40.596177849999961
F-74.133906940000017
tp376
a(F40.600038639999958
F-74.133906940000017
tp377
a(F40.603899429999956
F-74.133906940000017
tp378
a(F40.607760219999953
F-74.133906940000017
tp379
a(F40.611621009999951
F-74.133906940000017
tp380
a(F40.615481799999948
F-74.133906940000017
tp381
a(F40.619342589999945
F-74.133906940000017
tp382
a(F40.623203379999943
F-74.133906940000017
tp383
a(F40.62706416999994
F-74.133906940000017
tp384
a(F40.630924959999938
F-74.133906940000017
tp385
a(F40.634785749999935
F-74.133906940000017
tp386
a(F40.638646539999932
F-74.133906940000017
tp387
a(F40.64250732999993
F-74.133906940000017
tp388
a(F40.538266
F-74.128056720000018
tp389
a(F40.542126789999998
F-74.128056720000018
tp390
a(F40.545987579999995
F-74.128056720000018
tp391
a(F40.549848369999992
F-74.128056720000018
tp392
a(F40.55370915999999
F-74.128056720000018
tp393
a(F40.557569949999987
F-74.128056720000018
tp394
a(F40.561430739999984
F-74.128056720000018
tp395
a(F40.565291529999982
F-74.128056720000018
tp396
a(F40.569152319999979
F-74.128056720000018
tp397
a(F40.573013109999977
F-74.128056720000018
tp398
a(F40.576873899999974
F-74.128056720000018
tp399
a(F40.580734689999971
F-74.128056720000018
tp400
a(F40.584595479999969
F-74.128056720000018
tp401
a(F40.588456269999966
F-74.128056720000018
tp402
a(F40.592317059999964
F-74.128056720000018
tp403
a(F40.596177849999961
F-74.128056720000018
tp404
a(F40.600038639999958
F-74.128056720000018
tp405
a(F40.603899429999956
F-74.128056720000018
tp406
a(F40.607760219999953
F-74.128056720000018
tp407
a(F40.611621009999951
F-74.128056720000018
tp408
a(F40.615481799999948
F-74.128056720000018
tp409
a(F40.619342589999945
F-74.128056720000018
tp410
a(F40.623203379999943
F-74.128056720000018
tp411
a(F40.62706416999994
F-74.128056720000018
tp412
a(F40.630924959999938
F-74.128056720000018
tp413
a(F40.634785749999935
F-74.128056720000018
tp414
a(F40.638646539999932
F-74.128056720000018
tp415
a(F40.64250732999993
F-74.128056720000018
tp416
a(F40.538266
F-74.122206500000019
tp417
a(F40.542126789999998
F-74.122206500000019
tp418
a(F40.545987579999995
F-74.122206500000019
tp419
a(F40.549848369999992
F-74.122206500000019
tp420
a(F40.55370915999999
F-74.122206500000019
tp421
a(F40.557569949999987
F-74.122206500000019
tp422
a(F40.561430739999984
F-74.122206500000019
tp423
a(F40.565291529999982
F-74.122206500000019
tp424
a(F40.569152319999979
F-74.122206500000019
tp425
a(F40.573013109999977
F-74.122206500000019
tp426
a(F40.576873899999974
F-74.122206500000019
tp427
a(F40.580734689999971
F-74.122206500000019
tp428
a(F40.584595479999969
F-74.122206500000019
tp429
a(F40.588456269999966
F-74.122206500000019
tp430
a(F40.592317059999964
F-74.122206500000019
tp431
a(F40.596177849999961
F-74.122206500000019
tp432
a(F40.600038639999958
F-74.122206500000019
tp433
a(F40.603899429999956
F-74.122206500000019
tp434
a(F40.607760219999953
F-74.122206500000019
tp435
a(F40.611621009999951
F-74.122206500000019
tp436
a(F40.615481799999948
F-74.122206500000019
tp437
a(F40.619342589999945
F-74.122206500000019
tp438
a(F40.623203379999943
F-74.122206500000019
tp439
a(F40.62706416999994
F-74.122206500000019
tp440
a(F40.630924959999938
F-74.122206500000019
tp441
a(F40.634785749999935
F-74.122206500000019
tp442
a(F40.638646539999932
F-74.122206500000019
tp443
a(F40.64250732999993
F-74.122206500000019
tp444
a(F40.538266
F-74.116356280000019
tp445
a(F40.542126789999998
F-74.116356280000019
tp446
a(F40.545987579999995
F-74.116356280000019
tp447
a(F40.549848369999992
F-74.116356280000019
tp448
a(F40.55370915999999
F-74.116356280000019
tp449
a(F40.557569949999987
F-74.116356280000019
tp450
a(F40.561430739999984
F-74.116356280000019
tp451
a(F40.565291529999982
F-74.116356280000019
tp452
a(F40.569152319999979
F-74.116356280000019
tp453
a(F40.573013109999977
F-74.116356280000019
tp454
a(F40.576873899999974
F-74.116356280000019
tp455
a(F40.580734689999971
F-74.116356280000019
tp456
a(F40.584595479999969
F-74.116356280000019
tp457
a(F40.588456269999966
F-74.116356280000019
tp458
a(F40.592317059999964
F-74.116356280000019
tp459
a(F40.596177849999961
F-74.116356280000019
tp460
a(F40.600038639999958
F-74.116356280000019
tp461
a(F40.603899429999956
F-74.116356280000019
tp462
a(F40.607760219999953
F-74.116356280000019
tp463
a(F40.611621009999951
F-74.116356280000019
tp464
a(F40.615481799999948
F-74.116356280000019
tp465
a(F40.619342589999945
F-74.116356280000019
tp466
a(F40.623203379999943
F-74.116356280000019
tp467
a(F40.62706416999994
F-74.116356280000019
tp468
a(F40.630924959999938
F-74.116356280000019
tp469
a(F40.634785749999935
F-74.116356280000019
tp470
a(F40.638646539999932
F-74.116356280000019
tp471
a(F40.64250732999993
F-74.116356280000019
tp472
a(F40.646368119999927
F-74.116356280000019
tp473
a(F40.538266
F-74.11050606000002
tp474
a(F40.542126789999998
F-74.11050606000002
tp475
a(F40.545987579999995
F-74.11050606000002
tp476
a(F40.549848369999992
F-74.11050606000002
tp477
a(F40.55370915999999
F-74.11050606000002
tp478
a(F40.557569949999987
F-74.11050606000002
tp479
a(F40.561430739999984
F-74.11050606000002
tp480
a(F40.565291529999982
F-74.11050606000002
tp481
a(F40.569152319999979
F-74.11050606000002
tp482
a(F40.573013109999977
F-74.11050606000002
tp483
a(F40.576873899999974
F-74.11050606000002
tp484
a(F40.580734689999971
F-74.11050606000002
tp485
a(F40.584595479999969
F-74.11050606000002
tp486
a(F40.588456269999966
F-74.11050606000002
tp487
a(F40.592317059999964
F-74.11050606000002
tp488
a(F40.596177849999961
F-74.11050606000002
tp489
a(F40.600038639999958
F-74.11050606000002
tp490
a(F40.603899429999956
F-74.11050606000002
tp491
a(F40.607760219999953
F-74.11050606000002
tp492
a(F40.611621009999951
F-74.11050606000002
tp493
a(F40.615481799999948
F-74.11050606000002
tp494
a(F40.619342589999945
F-74.11050606000002
tp495
a(F40.623203379999943
F-74.11050606000002
tp496
a(F40.62706416999994
F-74.11050606000002
tp497
a(F40.630924959999938
F-74.11050606000002
tp498
a(F40.634785749999935
F-74.11050606000002
tp499
a(F40.638646539999932
F-74.11050606000002
tp500
a(F40.64250732999993
F-74.11050606000002
tp501
a(F40.646368119999927
F-74.11050606000002
tp502
a(F40.538266
F-74.104655840000021
tp503
a(F40.542126789999998
F-74.104655840000021
tp504
a(F40.545987579999995
F-74.104655840000021
tp505
a(F40.549848369999992
F-74.104655840000021
tp506
a(F40.55370915999999
F-74.104655840000021
tp507
a(F40.557569949999987
F-74.104655840000021
tp508
a(F40.561430739999984
F-74.104655840000021
tp509
a(F40.565291529999982
F-74.104655840000021
tp510
a(F40.569152319999979
F-74.104655840000021
tp511
a(F40.573013109999977
F-74.104655840000021
tp512
a(F40.576873899999974
F-74.104655840000021
tp513
a(F40.580734689999971
F-74.104655840000021
tp514
a(F40.584595479999969
F-74.104655840000021
tp515
a(F40.588456269999966
F-74.104655840000021
tp516
a(F40.592317059999964
F-74.104655840000021
tp517
a(F40.596177849999961
F-74.104655840000021
tp518
a(F40.600038639999958
F-74.104655840000021
tp519
a(F40.603899429999956
F-74.104655840000021
tp520
a(F40.607760219999953
F-74.104655840000021
tp521
a(F40.611621009999951
F-74.104655840000021
tp522
a(F40.615481799999948
F-74.104655840000021
tp523
a(F40.619342589999945
F-74.104655840000021
tp524
a(F40.623203379999943
F-74.104655840000021
tp525
a(F40.62706416999994
F-74.104655840000021
tp526
a(F40.630924959999938
F-74.104655840000021
tp527
a(F40.634785749999935
F-74.104655840000021
tp528
a(F40.638646539999932
F-74.104655840000021
tp529
a(F40.64250732999993
F-74.104655840000021
tp530
a(F40.646368119999927
F-74.104655840000021
tp531
a(F40.538266
F-74.098805620000022
tp532
a(F40.542126789999998
F-74.098805620000022
tp533
a(F40.545987579999995
F-74.098805620000022
tp534
a(F40.549848369999992
F-74.098805620000022
tp535
a(F40.55370915999999
F-74.098805620000022
tp536
a(F40.557569949999987
F-74.098805620000022
tp537
a(F40.561430739999984
F-74.098805620000022
tp538
a(F40.565291529999982
F-74.098805620000022
tp539
a(F40.569152319999979
F-74.098805620000022
tp540
a(F40.573013109999977
F-74.098805620000022
tp541
a(F40.576873899999974
F-74.098805620000022
tp542
a(F40.580734689999971
F-74.098805620000022
tp543
a(F40.584595479999969
F-74.098805620000022
tp544
a(F40.588456269999966
F-74.098805620000022
tp545
a(F40.592317059999964
F-74.098805620000022
tp546
a(F40.596177849999961
F-74.098805620000022
tp547
a(F40.600038639999958
F-74.098805620000022
tp548
a(F40.603899429999956
F-74.098805620000022
tp549
a(F40.607760219999953
F-74.098805620000022
tp550
a(F40.611621009999951
F-74.098805620000022
tp551
a(F40.615481799999948
F-74.098805620000022
tp552
a(F40.619342589999945
F-74.098805620000022
tp553
a(F40.623203379999943
F-74.098805620000022
tp554
a(F40.62706416999994
F-74.098805620000022
tp555
a(F40.630924959999938
F-74.098805620000022
tp556
a(F40.634785749999935
F-74.098805620000022
tp557
a(F40.638646539999932
F-74.098805620000022
tp558
a(F40.64250732999993
F-74.098805620000022
tp559
a(F40.646368119999927
F-74.098805620000022
tp560
a(F40.538266
F-74.092955400000022
tp561
a(F40.542126789999998
F-74.092955400000022
tp562
a(F40.545987579999995
F-74.092955400000022
tp563
a(F40.549848369999992
F-74.092955400000022
tp564
a(F40.55370915999999
F-74.092955400000022
tp565
a(F40.557569949999987
F-74.092955400000022
tp566
a(F40.561430739999984
F-74.092955400000022
tp567
a(F40.565291529999982
F-74.092955400000022
tp568
a(F40.569152319999979
F-74.092955400000022
tp569
a(F40.573013109999977
F-74.092955400000022
tp570
a(F40.576873899999974
F-74.092955400000022
tp571
a(F40.580734689999971
F-74.092955400000022
tp572
a(F40.584595479999969
F-74.092955400000022
tp573
a(F40.588456269999966
F-74.092955400000022
tp574
a(F40.592317059999964
F-74.092955400000022
tp575
a(F40.596177849999961
F-74.092955400000022
tp576
a(F40.600038639999958
F-74.092955400000022
tp577
a(F40.603899429999956
F-74.092955400000022
tp578
a(F40.607760219999953
F-74.092955400000022
tp579
a(F40.611621009999951
F-74.092955400000022
tp580
a(F40.615481799999948
F-74.092955400000022
tp581
a(F40.619342589999945
F-74.092955400000022
tp582
a(F40.623203379999943
F-74.092955400000022
tp583
a(F40.62706416999994
F-74.092955400000022
tp584
a(F40.630924959999938
F-74.092955400000022
tp585
a(F40.634785749999935
F-74.092955400000022
tp586
a(F40.638646539999932
F-74.092955400000022
tp587
a(F40.64250732999993
F-74.092955400000022
tp588
a(F40.646368119999927
F-74.092955400000022
tp589
a(F40.538266
F-74.087105180000023
tp590
a(F40.542126789999998
F-74.087105180000023
tp591
a(F40.545987579999995
F-74.087105180000023
tp592
a(F40.549848369999992
F-74.087105180000023
tp593
a(F40.55370915999999
F-74.087105180000023
tp594
a(F40.557569949999987
F-74.087105180000023
tp595
a(F40.561430739999984
F-74.087105180000023
tp596
a(F40.565291529999982
F-74.087105180000023
tp597
a(F40.569152319999979
F-74.087105180000023
tp598
a(F40.573013109999977
F-74.087105180000023
tp599
a(F40.576873899999974
F-74.087105180000023
tp600
a(F40.580734689999971
F-74.087105180000023
tp601
a(F40.584595479999969
F-74.087105180000023
tp602
a(F40.588456269999966
F-74.087105180000023
tp603
a(F40.592317059999964
F-74.087105180000023
tp604
a(F40.596177849999961
F-74.087105180000023
tp605
a(F40.600038639999958
F-74.087105180000023
tp606
a(F40.603899429999956
F-74.087105180000023
tp607
a(F40.607760219999953
F-74.087105180000023
tp608
a(F40.611621009999951
F-74.087105180000023
tp609
a(F40.615481799999948
F-74.087105180000023
tp610
a(F40.619342589999945
F-74.087105180000023
tp611
a(F40.623203379999943
F-74.087105180000023
tp612
a(F40.62706416999994
F-74.087105180000023
tp613
a(F40.630924959999938
F-74.087105180000023
tp614
a(F40.634785749999935
F-74.087105180000023
tp615
a(F40.638646539999932
F-74.087105180000023
tp616
a(F40.64250732999993
F-74.087105180000023
tp617
a(F40.646368119999927
F-74.087105180000023
tp618
a(F40.650228909999925
F-74.087105180000023
tp619
a(F40.538266
F-74.081254960000024
tp620
a(F40.542126789999998
F-74.081254960000024
tp621
a(F40.545987579999995
F-74.081254960000024
tp622
a(F40.549848369999992
F-74.081254960000024
tp623
a(F40.55370915999999
F-74.081254960000024
tp624
a(F40.557569949999987
F-74.081254960000024
tp625
a(F40.561430739999984
F-74.081254960000024
tp626
a(F40.565291529999982
F-74.081254960000024
tp627
a(F40.569152319999979
F-74.081254960000024
tp628
a(F40.573013109999977
F-74.081254960000024
tp629
a(F40.576873899999974
F-74.081254960000024
tp630
a(F40.580734689999971
F-74.081254960000024
tp631
a(F40.584595479999969
F-74.081254960000024
tp632
a(F40.588456269999966
F-74.081254960000024
tp633
a(F40.592317059999964
F-74.081254960000024
tp634
a(F40.596177849999961
F-74.081254960000024
tp635
a(F40.600038639999958
F-74.081254960000024
tp636
a(F40.603899429999956
F-74.081254960000024
tp637
a(F40.607760219999953
F-74.081254960000024
tp638
a(F40.611621009999951
F-74.081254960000024
tp639
a(F40.615481799999948
F-74.081254960000024
tp640
a(F40.619342589999945
F-74.081254960000024
tp641
a(F40.623203379999943
F-74.081254960000024
tp642
a(F40.62706416999994
F-74.081254960000024
tp643
a(F40.630924959999938
F-74.081254960000024
tp644
a(F40.634785749999935
F-74.081254960000024
tp645
a(F40.638646539999932
F-74.081254960000024
tp646
a(F40.64250732999993
F-74.081254960000024
tp647
a(F40.646368119999927
F-74.081254960000024
tp648
a(F40.650228909999925
F-74.081254960000024
tp649
a(F40.538266
F-74.075404740000025
tp650
a(F40.542126789999998
F-74.075404740000025
tp651
a(F40.545987579999995
F-74.075404740000025
tp652
a(F40.549848369999992
F-74.075404740000025
tp653
a(F40.55370915999999
F-74.075404740000025
tp654
a(F40.557569949999987
F-74.075404740000025
tp655
a(F40.561430739999984
F-74.075404740000025
tp656
a(F40.565291529999982
F-74.075404740000025
tp657
a(F40.569152319999979
F-74.075404740000025
tp658
a(F40.573013109999977
F-74.075404740000025
tp659
a(F40.576873899999974
F-74.075404740000025
tp660
a(F40.580734689999971
F-74.075404740000025
tp661
a(F40.584595479999969
F-74.075404740000025
tp662
a(F40.588456269999966
F-74.075404740000025
tp663
a(F40.592317059999964
F-74.075404740000025
tp664
a(F40.596177849999961
F-74.075404740000025
tp665
a(F40.600038639999958
F-74.075404740000025
tp666
a(F40.603899429999956
F-74.075404740000025
tp667
a(F40.607760219999953
F-74.075404740000025
tp668
a(F40.611621009999951
F-74.075404740000025
tp669
a(F40.615481799999948
F-74.075404740000025
tp670
a(F40.619342589999945
F-74.075404740000025
tp671
a(F40.623203379999943
F-74.075404740000025
tp672
a(F40.62706416999994
F-74.075404740000025
tp673
a(F40.630924959999938
F-74.075404740000025
tp674
a(F40.634785749999935
F-74.075404740000025
tp675
a(F40.638646539999932
F-74.075404740000025
tp676
a(F40.64250732999993
F-74.075404740000025
tp677
a(F40.646368119999927
F-74.075404740000025
tp678
a(F40.650228909999925
F-74.075404740000025
tp679
a(F40.538266
F-74.069554520000025
tp680
a(F40.542126789999998
F-74.069554520000025
tp681
a(F40.545987579999995
F-74.069554520000025
tp682
a(F40.549848369999992
F-74.069554520000025
tp683
a(F40.55370915999999
F-74.069554520000025
tp684
a(F40.557569949999987
F-74.069554520000025
tp685
a(F40.561430739999984
F-74.069554520000025
tp686
a(F40.565291529999982
F-74.069554520000025
tp687
a(F40.569152319999979
F-74.069554520000025
tp688
a(F40.573013109999977
F-74.069554520000025
tp689
a(F40.576873899999974
F-74.069554520000025
tp690
a(F40.580734689999971
F-74.069554520000025
tp691
a(F40.584595479999969
F-74.069554520000025
tp692
a(F40.588456269999966
F-74.069554520000025
tp693
a(F40.592317059999964
F-74.069554520000025
tp694
a(F40.596177849999961
F-74.069554520000025
tp695
a(F40.600038639999958
F-74.069554520000025
tp696
a(F40.603899429999956
F-74.069554520000025
tp697
a(F40.607760219999953
F-74.069554520000025
tp698
a(F40.611621009999951
F-74.069554520000025
tp699
a(F40.615481799999948
F-74.069554520000025
tp700
a(F40.619342589999945
F-74.069554520000025
tp701
a(F40.623203379999943
F-74.069554520000025
tp702
a(F40.62706416999994
F-74.069554520000025
tp703
a(F40.630924959999938
F-74.069554520000025
tp704
a(F40.634785749999935
F-74.069554520000025
tp705
a(F40.638646539999932
F-74.069554520000025
tp706
a(F40.64250732999993
F-74.069554520000025
tp707
a(F40.646368119999927
F-74.069554520000025
tp708
a(F40.650228909999925
F-74.069554520000025
tp709
a(F40.538266
F-74.063704300000026
tp710
a(F40.542126789999998
F-74.063704300000026
tp711
a(F40.545987579999995
F-74.063704300000026
tp712
a(F40.549848369999992
F-74.063704300000026
tp713
a(F40.55370915999999
F-74.063704300000026
tp714
a(F40.557569949999987
F-74.063704300000026
tp715
a(F40.561430739999984
F-74.063704300000026
tp716
a(F40.565291529999982
F-74.063704300000026
tp717
a(F40.569152319999979
F-74.063704300000026
tp718
a(F40.573013109999977
F-74.063704300000026
tp719
a(F40.576873899999974
F-74.063704300000026
tp720
a(F40.580734689999971
F-74.063704300000026
tp721
a(F40.584595479999969
F-74.063704300000026
tp722
a(F40.588456269999966
F-74.063704300000026
tp723
a(F40.592317059999964
F-74.063704300000026
tp724
a(F40.596177849999961
F-74.063704300000026
tp725
a(F40.600038639999958
F-74.063704300000026
tp726
a(F40.603899429999956
F-74.063704300000026
tp727
a(F40.607760219999953
F-74.063704300000026
tp728
a(F40.611621009999951
F-74.063704300000026
tp729
a(F40.615481799999948
F-74.063704300000026
tp730
a(F40.619342589999945
F-74.063704300000026
tp731
a(F40.623203379999943
F-74.063704300000026
tp732
a(F40.62706416999994
F-74.063704300000026
tp733
a(F40.630924959999938
F-74.063704300000026
tp734
a(F40.634785749999935
F-74.063704300000026
tp735
a(F40.638646539999932
F-74.063704300000026
tp736
a(F40.64250732999993
F-74.063704300000026
tp737
a(F40.646368119999927
F-74.063704300000026
tp738
a(F40.650228909999925
F-74.063704300000026
tp739
a(F40.538266
F-74.057854080000027
tp740
a(F40.542126789999998
F-74.057854080000027
tp741
a(F40.545987579999995
F-74.057854080000027
tp742
a(F40.549848369999992
F-74.057854080000027
tp743
a(F40.55370915999999
F-74.057854080000027
tp744
a(F40.557569949999987
F-74.057854080000027
tp745
a(F40.561430739999984
F-74.057854080000027
tp746
a(F40.565291529999982
F-74.057854080000027
tp747
a(F40.569152319999979
F-74.057854080000027
tp748
a(F40.573013109999977
F-74.057854080000027
tp749
a(F40.576873899999974
F-74.057854080000027
tp750
a(F40.580734689999971
F-74.057854080000027
tp751
a(F40.584595479999969
F-74.057854080000027
tp752
a(F40.588456269999966
F-74.057854080000027
tp753
a(F40.592317059999964
F-74.057854080000027
tp754
a(F40.596177849999961
F-74.057854080000027
tp755
a(F40.600038639999958
F-74.057854080000027
tp756
a(F40.603899429999956
F-74.057854080000027
tp757
a(F40.607760219999953
F-74.057854080000027
tp758
a(F40.611621009999951
F-74.057854080000027
tp759
a(F40.615481799999948
F-74.057854080000027
tp760
a(F40.619342589999945
F-74.057854080000027
tp761
a(F40.623203379999943
F-74.057854080000027
tp762
a(F40.62706416999994
F-74.057854080000027
tp763
a(F40.630924959999938
F-74.057854080000027
tp764
a(F40.634785749999935
F-74.057854080000027
tp765
a(F40.638646539999932
F-74.057854080000027
tp766
a(F40.64250732999993
F-74.057854080000027
tp767
a(F40.646368119999927
F-74.057854080000027
tp768
a(F40.650228909999925
F-74.057854080000027
tp769
a(F40.538266
F-74.052003860000028
tp770
a(F40.542126789999998
F-74.052003860000028
tp771
a(F40.545987579999995
F-74.052003860000028
tp772
a(F40.549848369999992
F-74.052003860000028
tp773
a(F40.55370915999999
F-74.052003860000028
tp774
a(F40.557569949999987
F-74.052003860000028
tp775
a(F40.561430739999984
F-74.052003860000028
tp776
a(F40.565291529999982
F-74.052003860000028
tp777
a(F40.569152319999979
F-74.052003860000028
tp778
a(F40.573013109999977
F-74.052003860000028
tp779
a(F40.576873899999974
F-74.052003860000028
tp780
a(F40.580734689999971
F-74.052003860000028
tp781
a(F40.584595479999969
F-74.052003860000028
tp782
a(F40.588456269999966
F-74.052003860000028
tp783
a(F40.592317059999964
F-74.052003860000028
tp784
a(F40.596177849999961
F-74.052003860000028
tp785
a(F40.600038639999958
F-74.052003860000028
tp786
a(F40.603899429999956
F-74.052003860000028
tp787
a(F40.607760219999953
F-74.052003860000028
tp788
a(F40.611621009999951
F-74.052003860000028
tp789
a(F40.615481799999948
F-74.052003860000028
tp790
a(F40.619342589999945
F-74.052003860000028
tp791
a(F40.623203379999943
F-74.052003860000028
tp792
a(F40.62706416999994
F-74.052003860000028
tp793
a(F40.630924959999938
F-74.052003860000028
tp794
a(F40.634785749999935
F-74.052003860000028
tp795
a(F40.638646539999932
F-74.052003860000028
tp796
a(F40.64250732999993
F-74.052003860000028
tp797
a(F40.646368119999927
F-74.052003860000028
tp798
a(F40.650228909999925
F-74.052003860000028
tp799
a(F40.654089699999922
F-74.052003860000028
tp800
a(F40.538266
F-74.046153640000028
tp801
a(F40.542126789999998
F-74.046153640000028
tp802
a(F40.545987579999995
F-74.046153640000028
tp803
a(F40.549848369999992
F-74.046153640000028
tp804
a(F40.55370915999999
F-74.046153640000028
tp805
a(F40.557569949999987
F-74.046153640000028
tp806
a(F40.561430739999984
F-74.046153640000028
tp807
a(F40.565291529999982
F-74.046153640000028
tp808
a(F40.569152319999979
F-74.046153640000028
tp809
a(F40.573013109999977
F-74.046153640000028
tp810
a(F40.576873899999974
F-74.046153640000028
tp811
a(F40.580734689999971
F-74.046153640000028
tp812
a(F40.584595479999969
F-74.046153640000028
tp813
a(F40.588456269999966
F-74.046153640000028
tp814
a(F40.592317059999964
F-74.046153640000028
tp815
a(F40.596177849999961
F-74.046153640000028
tp816
a(F40.600038639999958
F-74.046153640000028
tp817
a(F40.603899429999956
F-74.046153640000028
tp818
a(F40.607760219999953
F-74.046153640000028
tp819
a(F40.611621009999951
F-74.046153640000028
tp820
a(F40.615481799999948
F-74.046153640000028
tp821
a(F40.619342589999945
F-74.046153640000028
tp822
a(F40.623203379999943
F-74.046153640000028
tp823
a(F40.62706416999994
F-74.046153640000028
tp824
a(F40.630924959999938
F-74.046153640000028
tp825
a(F40.634785749999935
F-74.046153640000028
tp826
a(F40.638646539999932
F-74.046153640000028
tp827
a(F40.64250732999993
F-74.046153640000028
tp828
a(F40.646368119999927
F-74.046153640000028
tp829
a(F40.650228909999925
F-74.046153640000028
tp830
a(F40.654089699999922
F-74.046153640000028
tp831
a(F40.657950489999919
F-74.046153640000028
tp832
a(F40.661811279999917
F-74.046153640000028
tp833
a(F40.665672069999914
F-74.046153640000028
tp834
a(F40.538266
F-74.040303420000029
tp835
a(F40.542126789999998
F-74.040303420000029
tp836
a(F40.545987579999995
F-74.040303420000029
tp837
a(F40.549848369999992
F-74.040303420000029
tp838
a(F40.55370915999999
F-74.040303420000029
tp839
a(F40.557569949999987
F-74.040303420000029
tp840
a(F40.561430739999984
F-74.040303420000029
tp841
a(F40.565291529999982
F-74.040303420000029
tp842
a(F40.569152319999979
F-74.040303420000029
tp843
a(F40.573013109999977
F-74.040303420000029
tp844
a(F40.576873899999974
F-74.040303420000029
tp845
a(F40.580734689999971
F-74.040303420000029
tp846
a(F40.584595479999969
F-74.040303420000029
tp847
a(F40.588456269999966
F-74.040303420000029
tp848
a(F40.592317059999964
F-74.040303420000029
tp849
a(F40.596177849999961
F-74.040303420000029
tp850
a(F40.600038639999958
F-74.040303420000029
tp851
a(F40.603899429999956
F-74.040303420000029
tp852
a(F40.607760219999953
F-74.040303420000029
tp853
a(F40.611621009999951
F-74.040303420000029
tp854
a(F40.615481799999948
F-74.040303420000029
tp855
a(F40.619342589999945
F-74.040303420000029
tp856
a(F40.623203379999943
F-74.040303420000029
tp857
a(F40.62706416999994
F-74.040303420000029
tp858
a(F40.630924959999938
F-74.040303420000029
tp859
a(F40.634785749999935
F-74.040303420000029
tp860
a(F40.638646539999932
F-74.040303420000029
tp861
a(F40.64250732999993
F-74.040303420000029
tp862
a(F40.646368119999927
F-74.040303420000029
tp863
a(F40.650228909999925
F-74.040303420000029
tp864
a(F40.654089699999922
F-74.040303420000029
tp865
a(F40.657950489999919
F-74.040303420000029
tp866
a(F40.661811279999917
F-74.040303420000029
tp867
a(F40.665672069999914
F-74.040303420000029
tp868
a(F40.669532859999912
F-74.040303420000029
tp869
a(F40.538266
F-74.03445320000003
tp870
a(F40.542126789999998
F-74.03445320000003
tp871
a(F40.545987579999995
F-74.03445320000003
tp872
a(F40.549848369999992
F-74.03445320000003
tp873
a(F40.55370915999999
F-74.03445320000003
tp874
a(F40.557569949999987
F-74.03445320000003
tp875
a(F40.561430739999984
F-74.03445320000003
tp876
a(F40.565291529999982
F-74.03445320000003
tp877
a(F40.569152319999979
F-74.03445320000003
tp878
a(F40.573013109999977
F-74.03445320000003
tp879
a(F40.576873899999974
F-74.03445320000003
tp880
a(F40.580734689999971
F-74.03445320000003
tp881
a(F40.584595479999969
F-74.03445320000003
tp882
a(F40.588456269999966
F-74.03445320000003
tp883
a(F40.592317059999964
F-74.03445320000003
tp884
a(F40.596177849999961
F-74.03445320000003
tp885
a(F40.600038639999958
F-74.03445320000003
tp886
a(F40.603899429999956
F-74.03445320000003
tp887
a(F40.607760219999953
F-74.03445320000003
tp888
a(F40.611621009999951
F-74.03445320000003
tp889
a(F40.615481799999948
F-74.03445320000003
tp890
a(F40.619342589999945
F-74.03445320000003
tp891
a(F40.623203379999943
F-74.03445320000003
tp892
a(F40.62706416999994
F-74.03445320000003
tp893
a(F40.630924959999938
F-74.03445320000003
tp894
a(F40.634785749999935
F-74.03445320000003
tp895
a(F40.638646539999932
F-74.03445320000003
tp896
a(F40.64250732999993
F-74.03445320000003
tp897
a(F40.646368119999927
F-74.03445320000003
tp898
a(F40.650228909999925
F-74.03445320000003
tp899
a(F40.654089699999922
F-74.03445320000003
tp900
a(F40.657950489999919
F-74.03445320000003
tp901
a(F40.661811279999917
F-74.03445320000003
tp902
a(F40.665672069999914
F-74.03445320000003
tp903
a(F40.669532859999912
F-74.03445320000003
tp904
a(F40.538266
F-74.028602980000031
tp905
a(F40.542126789999998
F-74.028602980000031
tp906
a(F40.545987579999995
F-74.028602980000031
tp907
a(F40.549848369999992
F-74.028602980000031
tp908
a(F40.55370915999999
F-74.028602980000031
tp909
a(F40.557569949999987
F-74.028602980000031
tp910
a(F40.561430739999984
F-74.028602980000031
tp911
a(F40.565291529999982
F-74.028602980000031
tp912
a(F40.569152319999979
F-74.028602980000031
tp913
a(F40.573013109999977
F-74.028602980000031
tp914
a(F40.576873899999974
F-74.028602980000031
tp915
a(F40.580734689999971
F-74.028602980000031
tp916
a(F40.584595479999969
F-74.028602980000031
tp917
a(F40.588456269999966
F-74.028602980000031
tp918
a(F40.592317059999964
F-74.028602980000031
tp919
a(F40.596177849999961
F-74.028602980000031
tp920
a(F40.600038639999958
F-74.028602980000031
tp921
a(F40.603899429999956
F-74.028602980000031
tp922
a(F40.607760219999953
F-74.028602980000031
tp923
a(F40.611621009999951
F-74.028602980000031
tp924
a(F40.615481799999948
F-74.028602980000031
tp925
a(F40.619342589999945
F-74.028602980000031
tp926
a(F40.623203379999943
F-74.028602980000031
tp927
a(F40.62706416999994
F-74.028602980000031
tp928
a(F40.630924959999938
F-74.028602980000031
tp929
a(F40.634785749999935
F-74.028602980000031
tp930
a(F40.638646539999932
F-74.028602980000031
tp931
a(F40.64250732999993
F-74.028602980000031
tp932
a(F40.646368119999927
F-74.028602980000031
tp933
a(F40.650228909999925
F-74.028602980000031
tp934
a(F40.654089699999922
F-74.028602980000031
tp935
a(F40.657950489999919
F-74.028602980000031
tp936
a(F40.661811279999917
F-74.028602980000031
tp937
a(F40.665672069999914
F-74.028602980000031
tp938
a(F40.669532859999912
F-74.028602980000031
tp939
a(F40.538266
F-74.022752760000031
tp940
a(F40.542126789999998
F-74.022752760000031
tp941
a(F40.545987579999995
F-74.022752760000031
tp942
a(F40.549848369999992
F-74.022752760000031
tp943
a(F40.55370915999999
F-74.022752760000031
tp944
a(F40.557569949999987
F-74.022752760000031
tp945
a(F40.561430739999984
F-74.022752760000031
tp946
a(F40.565291529999982
F-74.022752760000031
tp947
a(F40.569152319999979
F-74.022752760000031
tp948
a(F40.573013109999977
F-74.022752760000031
tp949
a(F40.576873899999974
F-74.022752760000031
tp950
a(F40.580734689999971
F-74.022752760000031
tp951
a(F40.584595479999969
F-74.022752760000031
tp952
a(F40.588456269999966
F-74.022752760000031
tp953
a(F40.592317059999964
F-74.022752760000031
tp954
a(F40.596177849999961
F-74.022752760000031
tp955
a(F40.600038639999958
F-74.022752760000031
tp956
a(F40.603899429999956
F-74.022752760000031
tp957
a(F40.607760219999953
F-74.022752760000031
tp958
a(F40.611621009999951
F-74.022752760000031
tp959
a(F40.615481799999948
F-74.022752760000031
tp960
a(F40.619342589999945
F-74.022752760000031
tp961
a(F40.623203379999943
F-74.022752760000031
tp962
a(F40.62706416999994
F-74.022752760000031
tp963
a(F40.630924959999938
F-74.022752760000031
tp964
a(F40.634785749999935
F-74.022752760000031
tp965
a(F40.638646539999932
F-74.022752760000031
tp966
a(F40.64250732999993
F-74.022752760000031
tp967
a(F40.646368119999927
F-74.022752760000031
tp968
a(F40.650228909999925
F-74.022752760000031
tp969
a(F40.654089699999922
F-74.022752760000031
tp970
a(F40.657950489999919
F-74.022752760000031
tp971
a(F40.661811279999917
F-74.022752760000031
tp972
a(F40.665672069999914
F-74.022752760000031
tp973
a(F40.669532859999912
F-74.022752760000031
tp974
a(F40.538266
F-74.016902540000032
tp975
a(F40.542126789999998
F-74.016902540000032
tp976
a(F40.545987579999995
F-74.016902540000032
tp977
a(F40.549848369999992
F-74.016902540000032
tp978
a(F40.55370915999999
F-74.016902540000032
tp979
a(F40.557569949999987
F-74.016902540000032
tp980
a(F40.561430739999984
F-74.016902540000032
tp981
a(F40.565291529999982
F-74.016902540000032
tp982
a(F40.569152319999979
F-74.016902540000032
tp983
a(F40.573013109999977
F-74.016902540000032
tp984
a(F40.576873899999974
F-74.016902540000032
tp985
a(F40.580734689999971
F-74.016902540000032
tp986
a(F40.584595479999969
F-74.016902540000032
tp987
a(F40.588456269999966
F-74.016902540000032
tp988
a(F40.592317059999964
F-74.016902540000032
tp989
a(F40.596177849999961
F-74.016902540000032
tp990
a(F40.600038639999958
F-74.016902540000032
tp991
a(F40.603899429999956
F-74.016902540000032
tp992
a(F40.607760219999953
F-74.016902540000032
tp993
a(F40.611621009999951
F-74.016902540000032
tp994
a(F40.615481799999948
F-74.016902540000032
tp995
a(F40.619342589999945
F-74.016902540000032
tp996
a(F40.623203379999943
F-74.016902540000032
tp997
a(F40.62706416999994
F-74.016902540000032
tp998
a(F40.630924959999938
F-74.016902540000032
tp999
a(F40.634785749999935
F-74.016902540000032
tp1000
a(F40.638646539999932
F-74.016902540000032
tp1001
a(F40.64250732999993
F-74.016902540000032
tp1002
a(F40.646368119999927
F-74.016902540000032
tp1003
a(F40.650228909999925
F-74.016902540000032
tp1004
a(F40.654089699999922
F-74.016902540000032
tp1005
a(F40.657950489999919
F-74.016902540000032
tp1006
a(F40.661811279999917
F-74.016902540000032
tp1007
a(F40.665672069999914
F-74.016902540000032
tp1008
a(F40.669532859999912
F-74.016902540000032
tp1009
a(F40.538266
F-74.011052320000033
tp1010
a(F40.542126789999998
F-74.011052320000033
tp1011
a(F40.545987579999995
F-74.011052320000033
tp1012
a(F40.549848369999992
F-74.011052320000033
tp1013
a(F40.55370915999999
F-74.011052320000033
tp1014
a(F40.557569949999987
F-74.011052320000033
tp1015
a(F40.561430739999984
F-74.011052320000033
tp1016
a(F40.565291529999982
F-74.011052320000033
tp1017
a(F40.569152319999979
F-74.011052320000033
tp1018
a(F40.573013109999977
F-74.011052320000033
tp1019
a(F40.576873899999974
F-74.011052320000033
tp1020
a(F40.580734689999971
F-74.011052320000033
tp1021
a(F40.584595479999969
F-74.011052320000033
tp1022
a(F40.588456269999966
F-74.011052320000033
tp1023
a(F40.592317059999964
F-74.011052320000033
tp1024
a(F40.596177849999961
F-74.011052320000033
tp1025
a(F40.600038639999958
F-74.011052320000033
tp1026
a(F40.603899429999956
F-74.011052320000033
tp1027
a(F40.607760219999953
F-74.011052320000033
tp1028
a(F40.611621009999951
F-74.011052320000033
tp1029
a(F40.615481799999948
F-74.011052320000033
tp1030
a(F40.619342589999945
F-74.011052320000033
tp1031
a(F40.623203379999943
F-74.011052320000033
tp1032
a(F40.62706416999994
F-74.011052320000033
tp1033
a(F40.630924959999938
F-74.011052320000033
tp1034
a(F40.634785749999935
F-74.011052320000033
tp1035
a(F40.638646539999932
F-74.011052320000033
tp1036
a(F40.64250732999993
F-74.011052320000033
tp1037
a(F40.646368119999927
F-74.011052320000033
tp1038
a(F40.650228909999925
F-74.011052320000033
tp1039
a(F40.654089699999922
F-74.011052320000033
tp1040
a(F40.657950489999919
F-74.011052320000033
tp1041
a(F40.661811279999917
F-74.011052320000033
tp1042
a(F40.665672069999914
F-74.011052320000033
tp1043
a(F40.669532859999912
F-74.011052320000033
tp1044
a(F40.538266
F-74.005202100000034
tp1045
a(F40.542126789999998
F-74.005202100000034
tp1046
a(F40.545987579999995
F-74.005202100000034
tp1047
a(F40.549848369999992
F-74.005202100000034
tp1048
a(F40.55370915999999
F-74.005202100000034
tp1049
a(F40.557569949999987
F-74.005202100000034
tp1050
a(F40.561430739999984
F-74.005202100000034
tp1051
a(F40.565291529999982
F-74.005202100000034
tp1052
a(F40.569152319999979
F-74.005202100000034
tp1053
a(F40.573013109999977
F-74.005202100000034
tp1054
a(F40.576873899999974
F-74.005202100000034
tp1055
a(F40.580734689999971
F-74.005202100000034
tp1056
a(F40.584595479999969
F-74.005202100000034
tp1057
a(F40.588456269999966
F-74.005202100000034
tp1058
a(F40.592317059999964
F-74.005202100000034
tp1059
a(F40.596177849999961
F-74.005202100000034
tp1060
a(F40.600038639999958
F-74.005202100000034
tp1061
a(F40.603899429999956
F-74.005202100000034
tp1062
a(F40.607760219999953
F-74.005202100000034
tp1063
a(F40.611621009999951
F-74.005202100000034
tp1064
a(F40.615481799999948
F-74.005202100000034
tp1065
a(F40.619342589999945
F-74.005202100000034
tp1066
a(F40.623203379999943
F-74.005202100000034
tp1067
a(F40.62706416999994
F-74.005202100000034
tp1068
a(F40.630924959999938
F-74.005202100000034
tp1069
a(F40.634785749999935
F-74.005202100000034
tp1070
a(F40.638646539999932
F-74.005202100000034
tp1071
a(F40.64250732999993
F-74.005202100000034
tp1072
a(F40.646368119999927
F-74.005202100000034
tp1073
a(F40.650228909999925
F-74.005202100000034
tp1074
a(F40.654089699999922
F-74.005202100000034
tp1075
a(F40.657950489999919
F-74.005202100000034
tp1076
a(F40.661811279999917
F-74.005202100000034
tp1077
a(F40.665672069999914
F-74.005202100000034
tp1078
a(F40.669532859999912
F-74.005202100000034
tp1079
a(F40.538266
F-73.999351880000034
tp1080
a(F40.542126789999998
F-73.999351880000034
tp1081
a(F40.545987579999995
F-73.999351880000034
tp1082
a(F40.549848369999992
F-73.999351880000034
tp1083
a(F40.55370915999999
F-73.999351880000034
tp1084
a(F40.557569949999987
F-73.999351880000034
tp1085
a(F40.561430739999984
F-73.999351880000034
tp1086
a(F40.565291529999982
F-73.999351880000034
tp1087
a(F40.569152319999979
F-73.999351880000034
tp1088
a(F40.573013109999977
F-73.999351880000034
tp1089
a(F40.576873899999974
F-73.999351880000034
tp1090
a(F40.580734689999971
F-73.999351880000034
tp1091
a(F40.584595479999969
F-73.999351880000034
tp1092
a(F40.588456269999966
F-73.999351880000034
tp1093
a(F40.592317059999964
F-73.999351880000034
tp1094
a(F40.596177849999961
F-73.999351880000034
tp1095
a(F40.600038639999958
F-73.999351880000034
tp1096
a(F40.603899429999956
F-73.999351880000034
tp1097
a(F40.607760219999953
F-73.999351880000034
tp1098
a(F40.611621009999951
F-73.999351880000034
tp1099
a(F40.615481799999948
F-73.999351880000034
tp1100
a(F40.619342589999945
F-73.999351880000034
tp1101
a(F40.623203379999943
F-73.999351880000034
tp1102
a(F40.62706416999994
F-73.999351880000034
tp1103
a(F40.630924959999938
F-73.999351880000034
tp1104
a(F40.634785749999935
F-73.999351880000034
tp1105
a(F40.638646539999932
F-73.999351880000034
tp1106
a(F40.64250732999993
F-73.999351880000034
tp1107
a(F40.646368119999927
F-73.999351880000034
tp1108
a(F40.650228909999925
F-73.999351880000034
tp1109
a(F40.654089699999922
F-73.999351880000034
tp1110
a(F40.657950489999919
F-73.999351880000034
tp1111
a(F40.661811279999917
F-73.999351880000034
tp1112
a(F40.665672069999914
F-73.999351880000034
tp1113
a(F40.669532859999912
F-73.999351880000034
tp1114
a(F40.538266
F-73.993501660000035
tp1115
a(F40.542126789999998
F-73.993501660000035
tp1116
a(F40.545987579999995
F-73.993501660000035
tp1117
a(F40.549848369999992
F-73.993501660000035
tp1118
a(F40.55370915999999
F-73.993501660000035
tp1119
a(F40.557569949999987
F-73.993501660000035
tp1120
a(F40.561430739999984
F-73.993501660000035
tp1121
a(F40.565291529999982
F-73.993501660000035
tp1122
a(F40.569152319999979
F-73.993501660000035
tp1123
a(F40.573013109999977
F-73.993501660000035
tp1124
a(F40.576873899999974
F-73.993501660000035
tp1125
a(F40.580734689999971
F-73.993501660000035
tp1126
a(F40.584595479999969
F-73.993501660000035
tp1127
a(F40.588456269999966
F-73.993501660000035
tp1128
a(F40.592317059999964
F-73.993501660000035
tp1129
a(F40.596177849999961
F-73.993501660000035
tp1130
a(F40.600038639999958
F-73.993501660000035
tp1131
a(F40.603899429999956
F-73.993501660000035
tp1132
a(F40.607760219999953
F-73.993501660000035
tp1133
a(F40.611621009999951
F-73.993501660000035
tp1134
a(F40.615481799999948
F-73.993501660000035
tp1135
a(F40.619342589999945
F-73.993501660000035
tp1136
a(F40.623203379999943
F-73.993501660000035
tp1137
a(F40.62706416999994
F-73.993501660000035
tp1138
a(F40.630924959999938
F-73.993501660000035
tp1139
a(F40.634785749999935
F-73.993501660000035
tp1140
a(F40.638646539999932
F-73.993501660000035
tp1141
a(F40.64250732999993
F-73.993501660000035
tp1142
a(F40.646368119999927
F-73.993501660000035
tp1143
a(F40.650228909999925
F-73.993501660000035
tp1144
a(F40.654089699999922
F-73.993501660000035
tp1145
a(F40.657950489999919
F-73.993501660000035
tp1146
a(F40.661811279999917
F-73.993501660000035
tp1147
a(F40.665672069999914
F-73.993501660000035
tp1148
a(F40.669532859999912
F-73.993501660000035
tp1149
a(F40.538266
F-73.987651440000036
tp1150
a(F40.542126789999998
F-73.987651440000036
tp1151
a(F40.545987579999995
F-73.987651440000036
tp1152
a(F40.549848369999992
F-73.987651440000036
tp1153
a(F40.55370915999999
F-73.987651440000036
tp1154
a(F40.557569949999987
F-73.987651440000036
tp1155
a(F40.561430739999984
F-73.987651440000036
tp1156
a(F40.565291529999982
F-73.987651440000036
tp1157
a(F40.569152319999979
F-73.987651440000036
tp1158
a(F40.573013109999977
F-73.987651440000036
tp1159
a(F40.576873899999974
F-73.987651440000036
tp1160
a(F40.580734689999971
F-73.987651440000036
tp1161
a(F40.584595479999969
F-73.987651440000036
tp1162
a(F40.588456269999966
F-73.987651440000036
tp1163
a(F40.592317059999964
F-73.987651440000036
tp1164
a(F40.596177849999961
F-73.987651440000036
tp1165
a(F40.600038639999958
F-73.987651440000036
tp1166
a(F40.603899429999956
F-73.987651440000036
tp1167
a(F40.607760219999953
F-73.987651440000036
tp1168
a(F40.611621009999951
F-73.987651440000036
tp1169
a(F40.615481799999948
F-73.987651440000036
tp1170
a(F40.619342589999945
F-73.987651440000036
tp1171
a(F40.623203379999943
F-73.987651440000036
tp1172
a(F40.62706416999994
F-73.987651440000036
tp1173
a(F40.630924959999938
F-73.987651440000036
tp1174
a(F40.634785749999935
F-73.987651440000036
tp1175
a(F40.638646539999932
F-73.987651440000036
tp1176
a(F40.64250732999993
F-73.987651440000036
tp1177
a(F40.646368119999927
F-73.987651440000036
tp1178
a(F40.650228909999925
F-73.987651440000036
tp1179
a(F40.654089699999922
F-73.987651440000036
tp1180
a(F40.657950489999919
F-73.987651440000036
tp1181
a(F40.661811279999917
F-73.987651440000036
tp1182
a(F40.665672069999914
F-73.987651440000036
tp1183
a(F40.669532859999912
F-73.987651440000036
tp1184
a(F40.538266
F-73.981801220000037
tp1185
a(F40.542126789999998
F-73.981801220000037
tp1186
a(F40.545987579999995
F-73.981801220000037
tp1187
a(F40.549848369999992
F-73.981801220000037
tp1188
a(F40.55370915999999
F-73.981801220000037
tp1189
a(F40.557569949999987
F-73.981801220000037
tp1190
a(F40.561430739999984
F-73.981801220000037
tp1191
a(F40.565291529999982
F-73.981801220000037
tp1192
a(F40.569152319999979
F-73.981801220000037
tp1193
a(F40.573013109999977
F-73.981801220000037
tp1194
a(F40.576873899999974
F-73.981801220000037
tp1195
a(F40.580734689999971
F-73.981801220000037
tp1196
a(F40.584595479999969
F-73.981801220000037
tp1197
a(F40.588456269999966
F-73.981801220000037
tp1198
a(F40.592317059999964
F-73.981801220000037
tp1199
a(F40.596177849999961
F-73.981801220000037
tp1200
a(F40.600038639999958
F-73.981801220000037
tp1201
a(F40.603899429999956
F-73.981801220000037
tp1202
a(F40.607760219999953
F-73.981801220000037
tp1203
a(F40.611621009999951
F-73.981801220000037
tp1204
a(F40.615481799999948
F-73.981801220000037
tp1205
a(F40.619342589999945
F-73.981801220000037
tp1206
a(F40.623203379999943
F-73.981801220000037
tp1207
a(F40.62706416999994
F-73.981801220000037
tp1208
a(F40.630924959999938
F-73.981801220000037
tp1209
a(F40.634785749999935
F-73.981801220000037
tp1210
a(F40.638646539999932
F-73.981801220000037
tp1211
a(F40.64250732999993
F-73.981801220000037
tp1212
a(F40.646368119999927
F-73.981801220000037
tp1213
a(F40.650228909999925
F-73.981801220000037
tp1214
a(F40.654089699999922
F-73.981801220000037
tp1215
a(F40.657950489999919
F-73.981801220000037
tp1216
a(F40.661811279999917
F-73.981801220000037
tp1217
a(F40.665672069999914
F-73.981801220000037
tp1218
a(F40.669532859999912
F-73.981801220000037
tp1219
a(F40.538266
F-73.975951000000038
tp1220
a(F40.542126789999998
F-73.975951000000038
tp1221
a(F40.545987579999995
F-73.975951000000038
tp1222
a(F40.549848369999992
F-73.975951000000038
tp1223
a(F40.55370915999999
F-73.975951000000038
tp1224
a(F40.557569949999987
F-73.975951000000038
tp1225
a(F40.561430739999984
F-73.975951000000038
tp1226
a(F40.565291529999982
F-73.975951000000038
tp1227
a(F40.569152319999979
F-73.975951000000038
tp1228
a(F40.573013109999977
F-73.975951000000038
tp1229
a(F40.576873899999974
F-73.975951000000038
tp1230
a(F40.580734689999971
F-73.975951000000038
tp1231
a(F40.584595479999969
F-73.975951000000038
tp1232
a(F40.588456269999966
F-73.975951000000038
tp1233
a(F40.592317059999964
F-73.975951000000038
tp1234
a(F40.596177849999961
F-73.975951000000038
tp1235
a(F40.600038639999958
F-73.975951000000038
tp1236
a(F40.603899429999956
F-73.975951000000038
tp1237
a(F40.607760219999953
F-73.975951000000038
tp1238
a(F40.611621009999951
F-73.975951000000038
tp1239
a(F40.615481799999948
F-73.975951000000038
tp1240
a(F40.619342589999945
F-73.975951000000038
tp1241
a(F40.623203379999943
F-73.975951000000038
tp1242
a(F40.62706416999994
F-73.975951000000038
tp1243
a(F40.630924959999938
F-73.975951000000038
tp1244
a(F40.634785749999935
F-73.975951000000038
tp1245
a(F40.638646539999932
F-73.975951000000038
tp1246
a(F40.64250732999993
F-73.975951000000038
tp1247
a(F40.646368119999927
F-73.975951000000038
tp1248
a(F40.650228909999925
F-73.975951000000038
tp1249
a(F40.654089699999922
F-73.975951000000038
tp1250
a(F40.657950489999919
F-73.975951000000038
tp1251
a(F40.661811279999917
F-73.975951000000038
tp1252
a(F40.665672069999914
F-73.975951000000038
tp1253
a(F40.669532859999912
F-73.975951000000038
tp1254
a(F40.538266
F-73.970100780000038
tp1255
a(F40.542126789999998
F-73.970100780000038
tp1256
a(F40.545987579999995
F-73.970100780000038
tp1257
a(F40.549848369999992
F-73.970100780000038
tp1258
a(F40.55370915999999
F-73.970100780000038
tp1259
a(F40.557569949999987
F-73.970100780000038
tp1260
a(F40.561430739999984
F-73.970100780000038
tp1261
a(F40.565291529999982
F-73.970100780000038
tp1262
a(F40.569152319999979
F-73.970100780000038
tp1263
a(F40.573013109999977
F-73.970100780000038
tp1264
a(F40.576873899999974
F-73.970100780000038
tp1265
a(F40.580734689999971
F-73.970100780000038
tp1266
a(F40.584595479999969
F-73.970100780000038
tp1267
a(F40.588456269999966
F-73.970100780000038
tp1268
a(F40.592317059999964
F-73.970100780000038
tp1269
a(F40.596177849999961
F-73.970100780000038
tp1270
a(F40.600038639999958
F-73.970100780000038
tp1271
a(F40.603899429999956
F-73.970100780000038
tp1272
a(F40.607760219999953
F-73.970100780000038
tp1273
a(F40.611621009999951
F-73.970100780000038
tp1274
a(F40.615481799999948
F-73.970100780000038
tp1275
a(F40.619342589999945
F-73.970100780000038
tp1276
a(F40.623203379999943
F-73.970100780000038
tp1277
a(F40.62706416999994
F-73.970100780000038
tp1278
a(F40.630924959999938
F-73.970100780000038
tp1279
a(F40.634785749999935
F-73.970100780000038
tp1280
a(F40.638646539999932
F-73.970100780000038
tp1281
a(F40.64250732999993
F-73.970100780000038
tp1282
a(F40.646368119999927
F-73.970100780000038
tp1283
a(F40.650228909999925
F-73.970100780000038
tp1284
a(F40.654089699999922
F-73.970100780000038
tp1285
a(F40.657950489999919
F-73.970100780000038
tp1286
a(F40.661811279999917
F-73.970100780000038
tp1287
a(F40.665672069999914
F-73.970100780000038
tp1288
a(F40.669532859999912
F-73.970100780000038
tp1289
a(F40.538266
F-73.964250560000039
tp1290
a(F40.542126789999998
F-73.964250560000039
tp1291
a(F40.545987579999995
F-73.964250560000039
tp1292
a(F40.549848369999992
F-73.964250560000039
tp1293
a(F40.55370915999999
F-73.964250560000039
tp1294
a(F40.557569949999987
F-73.964250560000039
tp1295
a(F40.561430739999984
F-73.964250560000039
tp1296
a(F40.565291529999982
F-73.964250560000039
tp1297
a(F40.569152319999979
F-73.964250560000039
tp1298
a(F40.573013109999977
F-73.964250560000039
tp1299
a(F40.576873899999974
F-73.964250560000039
tp1300
a(F40.580734689999971
F-73.964250560000039
tp1301
a(F40.584595479999969
F-73.964250560000039
tp1302
a(F40.588456269999966
F-73.964250560000039
tp1303
a(F40.592317059999964
F-73.964250560000039
tp1304
a(F40.596177849999961
F-73.964250560000039
tp1305
a(F40.600038639999958
F-73.964250560000039
tp1306
a(F40.603899429999956
F-73.964250560000039
tp1307
a(F40.607760219999953
F-73.964250560000039
tp1308
a(F40.611621009999951
F-73.964250560000039
tp1309
a(F40.615481799999948
F-73.964250560000039
tp1310
a(F40.619342589999945
F-73.964250560000039
tp1311
a(F40.623203379999943
F-73.964250560000039
tp1312
a(F40.62706416999994
F-73.964250560000039
tp1313
a(F40.630924959999938
F-73.964250560000039
tp1314
a(F40.634785749999935
F-73.964250560000039
tp1315
a(F40.638646539999932
F-73.964250560000039
tp1316
a(F40.64250732999993
F-73.964250560000039
tp1317
a(F40.646368119999927
F-73.964250560000039
tp1318
a(F40.650228909999925
F-73.964250560000039
tp1319
a(F40.654089699999922
F-73.964250560000039
tp1320
a(F40.657950489999919
F-73.964250560000039
tp1321
a(F40.661811279999917
F-73.964250560000039
tp1322
a(F40.665672069999914
F-73.964250560000039
tp1323
a(F40.669532859999912
F-73.964250560000039
tp1324
a(F40.538266
F-73.95840034000004
tp1325
a(F40.542126789999998
F-73.95840034000004
tp1326
a(F40.545987579999995
F-73.95840034000004
tp1327
a(F40.549848369999992
F-73.95840034000004
tp1328
a(F40.55370915999999
F-73.95840034000004
tp1329
a(F40.557569949999987
F-73.95840034000004
tp1330
a(F40.561430739999984
F-73.95840034000004
tp1331
a(F40.565291529999982
F-73.95840034000004
tp1332
a(F40.569152319999979
F-73.95840034000004
tp1333
a(F40.573013109999977
F-73.95840034000004
tp1334
a(F40.576873899999974
F-73.95840034000004
tp1335
a(F40.580734689999971
F-73.95840034000004
tp1336
a(F40.584595479999969
F-73.95840034000004
tp1337
a(F40.588456269999966
F-73.95840034000004
tp1338
a(F40.592317059999964
F-73.95840034000004
tp1339
a(F40.596177849999961
F-73.95840034000004
tp1340
a(F40.600038639999958
F-73.95840034000004
tp1341
a(F40.603899429999956
F-73.95840034000004
tp1342
a(F40.607760219999953
F-73.95840034000004
tp1343
a(F40.611621009999951
F-73.95840034000004
tp1344
a(F40.615481799999948
F-73.95840034000004
tp1345
a(F40.619342589999945
F-73.95840034000004
tp1346
a(F40.623203379999943
F-73.95840034000004
tp1347
a(F40.62706416999994
F-73.95840034000004
tp1348
a(F40.630924959999938
F-73.95840034000004
tp1349
a(F40.634785749999935
F-73.95840034000004
tp1350
a(F40.638646539999932
F-73.95840034000004
tp1351
a(F40.64250732999993
F-73.95840034000004
tp1352
a(F40.646368119999927
F-73.95840034000004
tp1353
a(F40.650228909999925
F-73.95840034000004
tp1354
a(F40.654089699999922
F-73.95840034000004
tp1355
a(F40.657950489999919
F-73.95840034000004
tp1356
a(F40.661811279999917
F-73.95840034000004
tp1357
a(F40.665672069999914
F-73.95840034000004
tp1358
a(F40.669532859999912
F-73.95840034000004
tp1359
a(F40.538266
F-73.952550120000041
tp1360
a(F40.542126789999998
F-73.952550120000041
tp1361
a(F40.545987579999995
F-73.952550120000041
tp1362
a(F40.549848369999992
F-73.952550120000041
tp1363
a(F40.55370915999999
F-73.952550120000041
tp1364
a(F40.557569949999987
F-73.952550120000041
tp1365
a(F40.561430739999984
F-73.952550120000041
tp1366
a(F40.565291529999982
F-73.952550120000041
tp1367
a(F40.569152319999979
F-73.952550120000041
tp1368
a(F40.573013109999977
F-73.952550120000041
tp1369
a(F40.576873899999974
F-73.952550120000041
tp1370
a(F40.580734689999971
F-73.952550120000041
tp1371
a(F40.584595479999969
F-73.952550120000041
tp1372
a(F40.588456269999966
F-73.952550120000041
tp1373
a(F40.592317059999964
F-73.952550120000041
tp1374
a(F40.596177849999961
F-73.952550120000041
tp1375
a(F40.600038639999958
F-73.952550120000041
tp1376
a(F40.603899429999956
F-73.952550120000041
tp1377
a(F40.607760219999953
F-73.952550120000041
tp1378
a(F40.611621009999951
F-73.952550120000041
tp1379
a(F40.615481799999948
F-73.952550120000041
tp1380
a(F40.619342589999945
F-73.952550120000041
tp1381
a(F40.623203379999943
F-73.952550120000041
tp1382
a(F40.62706416999994
F-73.952550120000041
tp1383
a(F40.630924959999938
F-73.952550120000041
tp1384
a(F40.634785749999935
F-73.952550120000041
tp1385
a(F40.638646539999932
F-73.952550120000041
tp1386
a(F40.64250732999993
F-73.952550120000041
tp1387
a(F40.646368119999927
F-73.952550120000041
tp1388
a(F40.650228909999925
F-73.952550120000041
tp1389
a(F40.654089699999922
F-73.952550120000041
tp1390
a(F40.657950489999919
F-73.952550120000041
tp1391
a(F40.661811279999917
F-73.952550120000041
tp1392
a(F40.665672069999914
F-73.952550120000041
tp1393
a(F40.669532859999912
F-73.952550120000041
tp1394
a(F40.538266
F-73.946699900000041
tp1395
a(F40.542126789999998
F-73.946699900000041
tp1396
a(F40.545987579999995
F-73.946699900000041
tp1397
a(F40.549848369999992
F-73.946699900000041
tp1398
a(F40.55370915999999
F-73.946699900000041
tp1399
a(F40.557569949999987
F-73.946699900000041
tp1400
a(F40.561430739999984
F-73.946699900000041
tp1401
a(F40.565291529999982
F-73.946699900000041
tp1402
a(F40.569152319999979
F-73.946699900000041
tp1403
a(F40.573013109999977
F-73.946699900000041
tp1404
a(F40.576873899999974
F-73.946699900000041
tp1405
a(F40.580734689999971
F-73.946699900000041
tp1406
a(F40.584595479999969
F-73.946699900000041
tp1407
a(F40.588456269999966
F-73.946699900000041
tp1408
a(F40.592317059999964
F-73.946699900000041
tp1409
a(F40.596177849999961
F-73.946699900000041
tp1410
a(F40.600038639999958
F-73.946699900000041
tp1411
a(F40.603899429999956
F-73.946699900000041
tp1412
a(F40.607760219999953
F-73.946699900000041
tp1413
a(F40.611621009999951
F-73.946699900000041
tp1414
a(F40.615481799999948
F-73.946699900000041
tp1415
a(F40.619342589999945
F-73.946699900000041
tp1416
a(F40.623203379999943
F-73.946699900000041
tp1417
a(F40.62706416999994
F-73.946699900000041
tp1418
a(F40.630924959999938
F-73.946699900000041
tp1419
a(F40.634785749999935
F-73.946699900000041
tp1420
a(F40.638646539999932
F-73.946699900000041
tp1421
a(F40.64250732999993
F-73.946699900000041
tp1422
a(F40.646368119999927
F-73.946699900000041
tp1423
a(F40.650228909999925
F-73.946699900000041
tp1424
a(F40.654089699999922
F-73.946699900000041
tp1425
a(F40.657950489999919
F-73.946699900000041
tp1426
a(F40.661811279999917
F-73.946699900000041
tp1427
a(F40.665672069999914
F-73.946699900000041
tp1428
a(F40.669532859999912
F-73.946699900000041
tp1429
a(F40.538266
F-73.940849680000042
tp1430
a(F40.542126789999998
F-73.940849680000042
tp1431
a(F40.545987579999995
F-73.940849680000042
tp1432
a(F40.549848369999992
F-73.940849680000042
tp1433
a(F40.55370915999999
F-73.940849680000042
tp1434
a(F40.557569949999987
F-73.940849680000042
tp1435
a(F40.561430739999984
F-73.940849680000042
tp1436
a(F40.565291529999982
F-73.940849680000042
tp1437
a(F40.569152319999979
F-73.940849680000042
tp1438
a(F40.573013109999977
F-73.940849680000042
tp1439
a(F40.576873899999974
F-73.940849680000042
tp1440
a(F40.580734689999971
F-73.940849680000042
tp1441
a(F40.584595479999969
F-73.940849680000042
tp1442
a(F40.588456269999966
F-73.940849680000042
tp1443
a(F40.592317059999964
F-73.940849680000042
tp1444
a(F40.596177849999961
F-73.940849680000042
tp1445
a(F40.600038639999958
F-73.940849680000042
tp1446
a(F40.603899429999956
F-73.940849680000042
tp1447
a(F40.607760219999953
F-73.940849680000042
tp1448
a(F40.611621009999951
F-73.940849680000042
tp1449
a(F40.615481799999948
F-73.940849680000042
tp1450
a(F40.619342589999945
F-73.940849680000042
tp1451
a(F40.623203379999943
F-73.940849680000042
tp1452
a(F40.62706416999994
F-73.940849680000042
tp1453
a(F40.630924959999938
F-73.940849680000042
tp1454
a(F40.634785749999935
F-73.940849680000042
tp1455
a(F40.638646539999932
F-73.940849680000042
tp1456
a(F40.64250732999993
F-73.940849680000042
tp1457
a(F40.646368119999927
F-73.940849680000042
tp1458
a(F40.650228909999925
F-73.940849680000042
tp1459
a(F40.654089699999922
F-73.940849680000042
tp1460
a(F40.657950489999919
F-73.940849680000042
tp1461
a(F40.661811279999917
F-73.940849680000042
tp1462
a(F40.665672069999914
F-73.940849680000042
tp1463
a(F40.669532859999912
F-73.940849680000042
tp1464
a(F40.538266
F-73.934999460000043
tp1465
a(F40.542126789999998
F-73.934999460000043
tp1466
a(F40.545987579999995
F-73.934999460000043
tp1467
a(F40.549848369999992
F-73.934999460000043
tp1468
a(F40.55370915999999
F-73.934999460000043
tp1469
a(F40.557569949999987
F-73.934999460000043
tp1470
a(F40.561430739999984
F-73.934999460000043
tp1471
a(F40.565291529999982
F-73.934999460000043
tp1472
a(F40.569152319999979
F-73.934999460000043
tp1473
a(F40.573013109999977
F-73.934999460000043
tp1474
a(F40.576873899999974
F-73.934999460000043
tp1475
a(F40.580734689999971
F-73.934999460000043
tp1476
a(F40.584595479999969
F-73.934999460000043
tp1477
a(F40.588456269999966
F-73.934999460000043
tp1478
a(F40.592317059999964
F-73.934999460000043
tp1479
a(F40.596177849999961
F-73.934999460000043
tp1480
a(F40.600038639999958
F-73.934999460000043
tp1481
a(F40.603899429999956
F-73.934999460000043
tp1482
a(F40.607760219999953
F-73.934999460000043
tp1483
a(F40.611621009999951
F-73.934999460000043
tp1484
a(F40.615481799999948
F-73.934999460000043
tp1485
a(F40.619342589999945
F-73.934999460000043
tp1486
a(F40.623203379999943
F-73.934999460000043
tp1487
a(F40.62706416999994
F-73.934999460000043
tp1488
a(F40.630924959999938
F-73.934999460000043
tp1489
a(F40.634785749999935
F-73.934999460000043
tp1490
a(F40.638646539999932
F-73.934999460000043
tp1491
a(F40.64250732999993
F-73.934999460000043
tp1492
a(F40.646368119999927
F-73.934999460000043
tp1493
a(F40.650228909999925
F-73.934999460000043
tp1494
a(F40.654089699999922
F-73.934999460000043
tp1495
a(F40.657950489999919
F-73.934999460000043
tp1496
a(F40.661811279999917
F-73.934999460000043
tp1497
a(F40.665672069999914
F-73.934999460000043
tp1498
a(F40.669532859999912
F-73.934999460000043
tp1499
a(F40.538266
F-73.929149240000044
tp1500
a(F40.542126789999998
F-73.929149240000044
tp1501
a(F40.545987579999995
F-73.929149240000044
tp1502
a(F40.549848369999992
F-73.929149240000044
tp1503
a(F40.55370915999999
F-73.929149240000044
tp1504
a(F40.557569949999987
F-73.929149240000044
tp1505
a(F40.561430739999984
F-73.929149240000044
tp1506
a(F40.565291529999982
F-73.929149240000044
tp1507
a(F40.569152319999979
F-73.929149240000044
tp1508
a(F40.573013109999977
F-73.929149240000044
tp1509
a(F40.576873899999974
F-73.929149240000044
tp1510
a(F40.580734689999971
F-73.929149240000044
tp1511
a(F40.584595479999969
F-73.929149240000044
tp1512
a(F40.588456269999966
F-73.929149240000044
tp1513
a(F40.592317059999964
F-73.929149240000044
tp1514
a(F40.596177849999961
F-73.929149240000044
tp1515
a(F40.600038639999958
F-73.929149240000044
tp1516
a(F40.603899429999956
F-73.929149240000044
tp1517
a(F40.607760219999953
F-73.929149240000044
tp1518
a(F40.611621009999951
F-73.929149240000044
tp1519
a(F40.615481799999948
F-73.929149240000044
tp1520
a(F40.619342589999945
F-73.929149240000044
tp1521
a(F40.623203379999943
F-73.929149240000044
tp1522
a(F40.62706416999994
F-73.929149240000044
tp1523
a(F40.630924959999938
F-73.929149240000044
tp1524
a(F40.634785749999935
F-73.929149240000044
tp1525
a(F40.638646539999932
F-73.929149240000044
tp1526
a(F40.64250732999993
F-73.929149240000044
tp1527
a(F40.646368119999927
F-73.929149240000044
tp1528
a(F40.650228909999925
F-73.929149240000044
tp1529
a(F40.654089699999922
F-73.929149240000044
tp1530
a(F40.657950489999919
F-73.929149240000044
tp1531
a(F40.661811279999917
F-73.929149240000044
tp1532
a(F40.665672069999914
F-73.929149240000044
tp1533
a(F40.669532859999912
F-73.929149240000044
tp1534
a(F40.538266
F-73.923299020000044
tp1535
a(F40.542126789999998
F-73.923299020000044
tp1536
a(F40.545987579999995
F-73.923299020000044
tp1537
a(F40.549848369999992
F-73.923299020000044
tp1538
a(F40.55370915999999
F-73.923299020000044
tp1539
a(F40.557569949999987
F-73.923299020000044
tp1540
a(F40.561430739999984
F-73.923299020000044
tp1541
a(F40.565291529999982
F-73.923299020000044
tp1542
a(F40.569152319999979
F-73.923299020000044
tp1543
a(F40.573013109999977
F-73.923299020000044
tp1544
a(F40.576873899999974
F-73.923299020000044
tp1545
a(F40.580734689999971
F-73.923299020000044
tp1546
a(F40.584595479999969
F-73.923299020000044
tp1547
a(F40.588456269999966
F-73.923299020000044
tp1548
a(F40.592317059999964
F-73.923299020000044
tp1549
a(F40.596177849999961
F-73.923299020000044
tp1550
a(F40.600038639999958
F-73.923299020000044
tp1551
a(F40.603899429999956
F-73.923299020000044
tp1552
a(F40.607760219999953
F-73.923299020000044
tp1553
a(F40.611621009999951
F-73.923299020000044
tp1554
a(F40.615481799999948
F-73.923299020000044
tp1555
a(F40.619342589999945
F-73.923299020000044
tp1556
a(F40.623203379999943
F-73.923299020000044
tp1557
a(F40.62706416999994
F-73.923299020000044
tp1558
a(F40.630924959999938
F-73.923299020000044
tp1559
a(F40.634785749999935
F-73.923299020000044
tp1560
a(F40.638646539999932
F-73.923299020000044
tp1561
a(F40.64250732999993
F-73.923299020000044
tp1562
a(F40.646368119999927
F-73.923299020000044
tp1563
a(F40.650228909999925
F-73.923299020000044
tp1564
a(F40.654089699999922
F-73.923299020000044
tp1565
a(F40.657950489999919
F-73.923299020000044
tp1566
a(F40.661811279999917
F-73.923299020000044
tp1567
a(F40.665672069999914
F-73.923299020000044
tp1568
a(F40.669532859999912
F-73.923299020000044
tp1569
a(F40.538266
F-73.917448800000045
tp1570
a(F40.542126789999998
F-73.917448800000045
tp1571
a(F40.545987579999995
F-73.917448800000045
tp1572
a(F40.549848369999992
F-73.917448800000045
tp1573
a(F40.55370915999999
F-73.917448800000045
tp1574
a(F40.557569949999987
F-73.917448800000045
tp1575
a(F40.561430739999984
F-73.917448800000045
tp1576
a(F40.565291529999982
F-73.917448800000045
tp1577
a(F40.569152319999979
F-73.917448800000045
tp1578
a(F40.573013109999977
F-73.917448800000045
tp1579
a(F40.576873899999974
F-73.917448800000045
tp1580
a(F40.580734689999971
F-73.917448800000045
tp1581
a(F40.584595479999969
F-73.917448800000045
tp1582
a(F40.588456269999966
F-73.917448800000045
tp1583
a(F40.592317059999964
F-73.917448800000045
tp1584
a(F40.596177849999961
F-73.917448800000045
tp1585
a(F40.600038639999958
F-73.917448800000045
tp1586
a(F40.603899429999956
F-73.917448800000045
tp1587
a(F40.607760219999953
F-73.917448800000045
tp1588
a(F40.611621009999951
F-73.917448800000045
tp1589
a(F40.615481799999948
F-73.917448800000045
tp1590
a(F40.619342589999945
F-73.917448800000045
tp1591
a(F40.623203379999943
F-73.917448800000045
tp1592
a(F40.62706416999994
F-73.917448800000045
tp1593
a(F40.630924959999938
F-73.917448800000045
tp1594
a(F40.634785749999935
F-73.917448800000045
tp1595
a(F40.638646539999932
F-73.917448800000045
tp1596
a(F40.64250732999993
F-73.917448800000045
tp1597
a(F40.646368119999927
F-73.917448800000045
tp1598
a(F40.650228909999925
F-73.917448800000045
tp1599
a(F40.654089699999922
F-73.917448800000045
tp1600
a(F40.657950489999919
F-73.917448800000045
tp1601
a(F40.661811279999917
F-73.917448800000045
tp1602
a(F40.665672069999914
F-73.917448800000045
tp1603
a(F40.669532859999912
F-73.917448800000045
tp1604
a(F40.538266
F-73.911598580000046
tp1605
a(F40.542126789999998
F-73.911598580000046
tp1606
a(F40.545987579999995
F-73.911598580000046
tp1607
a(F40.549848369999992
F-73.911598580000046
tp1608
a(F40.55370915999999
F-73.911598580000046
tp1609
a(F40.557569949999987
F-73.911598580000046
tp1610
a(F40.561430739999984
F-73.911598580000046
tp1611
a(F40.565291529999982
F-73.911598580000046
tp1612
a(F40.569152319999979
F-73.911598580000046
tp1613
a(F40.573013109999977
F-73.911598580000046
tp1614
a(F40.576873899999974
F-73.911598580000046
tp1615
a(F40.580734689999971
F-73.911598580000046
tp1616
a(F40.584595479999969
F-73.911598580000046
tp1617
a(F40.588456269999966
F-73.911598580000046
tp1618
a(F40.592317059999964
F-73.911598580000046
tp1619
a(F40.596177849999961
F-73.911598580000046
tp1620
a(F40.600038639999958
F-73.911598580000046
tp1621
a(F40.603899429999956
F-73.911598580000046
tp1622
a(F40.607760219999953
F-73.911598580000046
tp1623
a(F40.611621009999951
F-73.911598580000046
tp1624
a(F40.615481799999948
F-73.911598580000046
tp1625
a(F40.619342589999945
F-73.911598580000046
tp1626
a(F40.623203379999943
F-73.911598580000046
tp1627
a(F40.62706416999994
F-73.911598580000046
tp1628
a(F40.630924959999938
F-73.911598580000046
tp1629
a(F40.634785749999935
F-73.911598580000046
tp1630
a(F40.638646539999932
F-73.911598580000046
tp1631
a(F40.64250732999993
F-73.911598580000046
tp1632
a(F40.646368119999927
F-73.911598580000046
tp1633
a(F40.650228909999925
F-73.911598580000046
tp1634
a(F40.654089699999922
F-73.911598580000046
tp1635
a(F40.657950489999919
F-73.911598580000046
tp1636
a(F40.661811279999917
F-73.911598580000046
tp1637
a(F40.665672069999914
F-73.911598580000046
tp1638
a(F40.669532859999912
F-73.911598580000046
tp1639
a(F40.538266
F-73.905748360000047
tp1640
a(F40.542126789999998
F-73.905748360000047
tp1641
a(F40.545987579999995
F-73.905748360000047
tp1642
a(F40.549848369999992
F-73.905748360000047
tp1643
a(F40.55370915999999
F-73.905748360000047
tp1644
a(F40.557569949999987
F-73.905748360000047
tp1645
a(F40.561430739999984
F-73.905748360000047
tp1646
a(F40.565291529999982
F-73.905748360000047
tp1647
a(F40.569152319999979
F-73.905748360000047
tp1648
a(F40.573013109999977
F-73.905748360000047
tp1649
a(F40.576873899999974
F-73.905748360000047
tp1650
a(F40.580734689999971
F-73.905748360000047
tp1651
a(F40.584595479999969
F-73.905748360000047
tp1652
a(F40.588456269999966
F-73.905748360000047
tp1653
a(F40.592317059999964
F-73.905748360000047
tp1654
a(F40.596177849999961
F-73.905748360000047
tp1655
a(F40.600038639999958
F-73.905748360000047
tp1656
a(F40.603899429999956
F-73.905748360000047
tp1657
a(F40.607760219999953
F-73.905748360000047
tp1658
a(F40.611621009999951
F-73.905748360000047
tp1659
a(F40.615481799999948
F-73.905748360000047
tp1660
a(F40.619342589999945
F-73.905748360000047
tp1661
a(F40.623203379999943
F-73.905748360000047
tp1662
a(F40.62706416999994
F-73.905748360000047
tp1663
a(F40.630924959999938
F-73.905748360000047
tp1664
a(F40.634785749999935
F-73.905748360000047
tp1665
a(F40.638646539999932
F-73.905748360000047
tp1666
a(F40.64250732999993
F-73.905748360000047
tp1667
a(F40.646368119999927
F-73.905748360000047
tp1668
a(F40.650228909999925
F-73.905748360000047
tp1669
a(F40.654089699999922
F-73.905748360000047
tp1670
a(F40.657950489999919
F-73.905748360000047
tp1671
a(F40.661811279999917
F-73.905748360000047
tp1672
a(F40.665672069999914
F-73.905748360000047
tp1673
a(F40.669532859999912
F-73.905748360000047
tp1674
a(F40.538266
F-73.899898140000047
tp1675
a(F40.542126789999998
F-73.899898140000047
tp1676
a(F40.545987579999995
F-73.899898140000047
tp1677
a(F40.549848369999992
F-73.899898140000047
tp1678
a(F40.55370915999999
F-73.899898140000047
tp1679
a(F40.557569949999987
F-73.899898140000047
tp1680
a(F40.561430739999984
F-73.899898140000047
tp1681
a(F40.565291529999982
F-73.899898140000047
tp1682
a(F40.569152319999979
F-73.899898140000047
tp1683
a(F40.573013109999977
F-73.899898140000047
tp1684
a(F40.576873899999974
F-73.899898140000047
tp1685
a(F40.580734689999971
F-73.899898140000047
tp1686
a(F40.584595479999969
F-73.899898140000047
tp1687
a(F40.588456269999966
F-73.899898140000047
tp1688
a(F40.592317059999964
F-73.899898140000047
tp1689
a(F40.596177849999961
F-73.899898140000047
tp1690
a(F40.600038639999958
F-73.899898140000047
tp1691
a(F40.603899429999956
F-73.899898140000047
tp1692
a(F40.607760219999953
F-73.899898140000047
tp1693
a(F40.611621009999951
F-73.899898140000047
tp1694
a(F40.615481799999948
F-73.899898140000047
tp1695
a(F40.619342589999945
F-73.899898140000047
tp1696
a(F40.623203379999943
F-73.899898140000047
tp1697
a(F40.62706416999994
F-73.899898140000047
tp1698
a(F40.630924959999938
F-73.899898140000047
tp1699
a(F40.634785749999935
F-73.899898140000047
tp1700
a(F40.638646539999932
F-73.899898140000047
tp1701
a(F40.64250732999993
F-73.899898140000047
tp1702
a(F40.646368119999927
F-73.899898140000047
tp1703
a(F40.650228909999925
F-73.899898140000047
tp1704
a(F40.654089699999922
F-73.899898140000047
tp1705
a(F40.657950489999919
F-73.899898140000047
tp1706
a(F40.661811279999917
F-73.899898140000047
tp1707
a(F40.665672069999914
F-73.899898140000047
tp1708
a(F40.669532859999912
F-73.899898140000047
tp1709
a(F40.538266
F-73.894047920000048
tp1710
a(F40.542126789999998
F-73.894047920000048
tp1711
a(F40.545987579999995
F-73.894047920000048
tp1712
a(F40.549848369999992
F-73.894047920000048
tp1713
a(F40.55370915999999
F-73.894047920000048
tp1714
a(F40.557569949999987
F-73.894047920000048
tp1715
a(F40.561430739999984
F-73.894047920000048
tp1716
a(F40.565291529999982
F-73.894047920000048
tp1717
a(F40.569152319999979
F-73.894047920000048
tp1718
a(F40.573013109999977
F-73.894047920000048
tp1719
a(F40.576873899999974
F-73.894047920000048
tp1720
a(F40.580734689999971
F-73.894047920000048
tp1721
a(F40.584595479999969
F-73.894047920000048
tp1722
a(F40.588456269999966
F-73.894047920000048
tp1723
a(F40.592317059999964
F-73.894047920000048
tp1724
a(F40.596177849999961
F-73.894047920000048
tp1725
a(F40.600038639999958
F-73.894047920000048
tp1726
a(F40.603899429999956
F-73.894047920000048
tp1727
a(F40.607760219999953
F-73.894047920000048
tp1728
a(F40.611621009999951
F-73.894047920000048
tp1729
a(F40.615481799999948
F-73.894047920000048
tp1730
a(F40.619342589999945
F-73.894047920000048
tp1731
a(F40.623203379999943
F-73.894047920000048
tp1732
a(F40.62706416999994
F-73.894047920000048
tp1733
a(F40.630924959999938
F-73.894047920000048
tp1734
a(F40.634785749999935
F-73.894047920000048
tp1735
a(F40.638646539999932
F-73.894047920000048
tp1736
a(F40.64250732999993
F-73.894047920000048
tp1737
a(F40.646368119999927
F-73.894047920000048
tp1738
a(F40.650228909999925
F-73.894047920000048
tp1739
a(F40.654089699999922
F-73.894047920000048
tp1740
a(F40.657950489999919
F-73.894047920000048
tp1741
a(F40.661811279999917
F-73.894047920000048
tp1742
a(F40.665672069999914
F-73.894047920000048
tp1743
a(F40.669532859999912
F-73.894047920000048
tp1744
a(F40.538266
F-73.888197700000049
tp1745
a(F40.542126789999998
F-73.888197700000049
tp1746
a(F40.545987579999995
F-73.888197700000049
tp1747
a(F40.549848369999992
F-73.888197700000049
tp1748
a(F40.55370915999999
F-73.888197700000049
tp1749
a(F40.557569949999987
F-73.888197700000049
tp1750
a(F40.561430739999984
F-73.888197700000049
tp1751
a(F40.565291529999982
F-73.888197700000049
tp1752
a(F40.569152319999979
F-73.888197700000049
tp1753
a(F40.573013109999977
F-73.888197700000049
tp1754
a(F40.576873899999974
F-73.888197700000049
tp1755
a(F40.580734689999971
F-73.888197700000049
tp1756
a(F40.584595479999969
F-73.888197700000049
tp1757
a(F40.588456269999966
F-73.888197700000049
tp1758
a(F40.592317059999964
F-73.888197700000049
tp1759
a(F40.596177849999961
F-73.888197700000049
tp1760
a(F40.600038639999958
F-73.888197700000049
tp1761
a(F40.603899429999956
F-73.888197700000049
tp1762
a(F40.607760219999953
F-73.888197700000049
tp1763
a(F40.611621009999951
F-73.888197700000049
tp1764
a(F40.615481799999948
F-73.888197700000049
tp1765
a(F40.619342589999945
F-73.888197700000049
tp1766
a(F40.623203379999943
F-73.888197700000049
tp1767
a(F40.62706416999994
F-73.888197700000049
tp1768
a(F40.630924959999938
F-73.888197700000049
tp1769
a(F40.634785749999935
F-73.888197700000049
tp1770
a(F40.638646539999932
F-73.888197700000049
tp1771
a(F40.64250732999993
F-73.888197700000049
tp1772
a(F40.646368119999927
F-73.888197700000049
tp1773
a(F40.650228909999925
F-73.888197700000049
tp1774
a(F40.654089699999922
F-73.888197700000049
tp1775
a(F40.657950489999919
F-73.888197700000049
tp1776
a(F40.661811279999917
F-73.888197700000049
tp1777
a(F40.665672069999914
F-73.888197700000049
tp1778
a(F40.669532859999912
F-73.888197700000049
tp1779
a(F40.538266
F-73.88234748000005
tp1780
a(F40.542126789999998
F-73.88234748000005
tp1781
a(F40.545987579999995
F-73.88234748000005
tp1782
a(F40.549848369999992
F-73.88234748000005
tp1783
a(F40.55370915999999
F-73.88234748000005
tp1784
a(F40.557569949999987
F-73.88234748000005
tp1785
a(F40.561430739999984
F-73.88234748000005
tp1786
a(F40.565291529999982
F-73.88234748000005
tp1787
a(F40.569152319999979
F-73.88234748000005
tp1788
a(F40.573013109999977
F-73.88234748000005
tp1789
a(F40.576873899999974
F-73.88234748000005
tp1790
a(F40.580734689999971
F-73.88234748000005
tp1791
a(F40.584595479999969
F-73.88234748000005
tp1792
a(F40.588456269999966
F-73.88234748000005
tp1793
a(F40.592317059999964
F-73.88234748000005
tp1794
a(F40.596177849999961
F-73.88234748000005
tp1795
a(F40.600038639999958
F-73.88234748000005
tp1796
a(F40.603899429999956
F-73.88234748000005
tp1797
a(F40.607760219999953
F-73.88234748000005
tp1798
a(F40.611621009999951
F-73.88234748000005
tp1799
a(F40.615481799999948
F-73.88234748000005
tp1800
a(F40.619342589999945
F-73.88234748000005
tp1801
a(F40.623203379999943
F-73.88234748000005
tp1802
a(F40.62706416999994
F-73.88234748000005
tp1803
a(F40.630924959999938
F-73.88234748000005
tp1804
a(F40.634785749999935
F-73.88234748000005
tp1805
a(F40.638646539999932
F-73.88234748000005
tp1806
a(F40.64250732999993
F-73.88234748000005
tp1807
a(F40.646368119999927
F-73.88234748000005
tp1808
a(F40.650228909999925
F-73.88234748000005
tp1809
a(F40.654089699999922
F-73.88234748000005
tp1810
a(F40.657950489999919
F-73.88234748000005
tp1811
a(F40.661811279999917
F-73.88234748000005
tp1812
a(F40.665672069999914
F-73.88234748000005
tp1813
a(F40.669532859999912
F-73.88234748000005
tp1814
a(F40.538266
F-73.87649726000005
tp1815
a(F40.542126789999998
F-73.87649726000005
tp1816
a(F40.545987579999995
F-73.87649726000005
tp1817
a(F40.549848369999992
F-73.87649726000005
tp1818
a(F40.55370915999999
F-73.87649726000005
tp1819
a(F40.557569949999987
F-73.87649726000005
tp1820
a(F40.561430739999984
F-73.87649726000005
tp1821
a(F40.565291529999982
F-73.87649726000005
tp1822
a(F40.569152319999979
F-73.87649726000005
tp1823
a(F40.573013109999977
F-73.87649726000005
tp1824
a(F40.576873899999974
F-73.87649726000005
tp1825
a(F40.580734689999971
F-73.87649726000005
tp1826
a(F40.584595479999969
F-73.87649726000005
tp1827
a(F40.588456269999966
F-73.87649726000005
tp1828
a(F40.592317059999964
F-73.87649726000005
tp1829
a(F40.596177849999961
F-73.87649726000005
tp1830
a(F40.600038639999958
F-73.87649726000005
tp1831
a(F40.603899429999956
F-73.87649726000005
tp1832
a(F40.607760219999953
F-73.87649726000005
tp1833
a(F40.611621009999951
F-73.87649726000005
tp1834
a(F40.615481799999948
F-73.87649726000005
tp1835
a(F40.619342589999945
F-73.87649726000005
tp1836
a(F40.623203379999943
F-73.87649726000005
tp1837
a(F40.62706416999994
F-73.87649726000005
tp1838
a(F40.630924959999938
F-73.87649726000005
tp1839
a(F40.634785749999935
F-73.87649726000005
tp1840
a(F40.638646539999932
F-73.87649726000005
tp1841
a(F40.64250732999993
F-73.87649726000005
tp1842
a(F40.646368119999927
F-73.87649726000005
tp1843
a(F40.650228909999925
F-73.87649726000005
tp1844
a(F40.654089699999922
F-73.87649726000005
tp1845
a(F40.657950489999919
F-73.87649726000005
tp1846
a(F40.661811279999917
F-73.87649726000005
tp1847
a(F40.665672069999914
F-73.87649726000005
tp1848
a(F40.669532859999912
F-73.87649726000005
tp1849
a(F40.538266
F-73.870647040000051
tp1850
a(F40.542126789999998
F-73.870647040000051
tp1851
a(F40.545987579999995
F-73.870647040000051
tp1852
a(F40.549848369999992
F-73.870647040000051
tp1853
a(F40.55370915999999
F-73.870647040000051
tp1854
a(F40.557569949999987
F-73.870647040000051
tp1855
a(F40.561430739999984
F-73.870647040000051
tp1856
a(F40.565291529999982
F-73.870647040000051
tp1857
a(F40.569152319999979
F-73.870647040000051
tp1858
a(F40.573013109999977
F-73.870647040000051
tp1859
a(F40.576873899999974
F-73.870647040000051
tp1860
a(F40.580734689999971
F-73.870647040000051
tp1861
a(F40.584595479999969
F-73.870647040000051
tp1862
a(F40.588456269999966
F-73.870647040000051
tp1863
a(F40.592317059999964
F-73.870647040000051
tp1864
a(F40.596177849999961
F-73.870647040000051
tp1865
a(F40.600038639999958
F-73.870647040000051
tp1866
a(F40.603899429999956
F-73.870647040000051
tp1867
a(F40.607760219999953
F-73.870647040000051
tp1868
a(F40.611621009999951
F-73.870647040000051
tp1869
a(F40.615481799999948
F-73.870647040000051
tp1870
a(F40.619342589999945
F-73.870647040000051
tp1871
a(F40.623203379999943
F-73.870647040000051
tp1872
a(F40.62706416999994
F-73.870647040000051
tp1873
a(F40.630924959999938
F-73.870647040000051
tp1874
a(F40.634785749999935
F-73.870647040000051
tp1875
a(F40.638646539999932
F-73.870647040000051
tp1876
a(F40.64250732999993
F-73.870647040000051
tp1877
a(F40.646368119999927
F-73.870647040000051
tp1878
a(F40.650228909999925
F-73.870647040000051
tp1879
a(F40.654089699999922
F-73.870647040000051
tp1880
a(F40.657950489999919
F-73.870647040000051
tp1881
a(F40.661811279999917
F-73.870647040000051
tp1882
a(F40.665672069999914
F-73.870647040000051
tp1883
a(F40.669532859999912
F-73.870647040000051
tp1884
a(F40.538266
F-73.864796820000052
tp1885
a(F40.542126789999998
F-73.864796820000052
tp1886
a(F40.545987579999995
F-73.864796820000052
tp1887
a(F40.549848369999992
F-73.864796820000052
tp1888
a(F40.55370915999999
F-73.864796820000052
tp1889
a(F40.557569949999987
F-73.864796820000052
tp1890
a(F40.561430739999984
F-73.864796820000052
tp1891
a(F40.565291529999982
F-73.864796820000052
tp1892
a(F40.569152319999979
F-73.864796820000052
tp1893
a(F40.573013109999977
F-73.864796820000052
tp1894
a(F40.576873899999974
F-73.864796820000052
tp1895
a(F40.580734689999971
F-73.864796820000052
tp1896
a(F40.584595479999969
F-73.864796820000052
tp1897
a(F40.588456269999966
F-73.864796820000052
tp1898
a(F40.592317059999964
F-73.864796820000052
tp1899
a(F40.596177849999961
F-73.864796820000052
tp1900
a(F40.600038639999958
F-73.864796820000052
tp1901
a(F40.603899429999956
F-73.864796820000052
tp1902
a(F40.607760219999953
F-73.864796820000052
tp1903
a(F40.611621009999951
F-73.864796820000052
tp1904
a(F40.615481799999948
F-73.864796820000052
tp1905
a(F40.619342589999945
F-73.864796820000052
tp1906
a(F40.623203379999943
F-73.864796820000052
tp1907
a(F40.62706416999994
F-73.864796820000052
tp1908
a(F40.630924959999938
F-73.864796820000052
tp1909
a(F40.634785749999935
F-73.864796820000052
tp1910
a(F40.638646539999932
F-73.864796820000052
tp1911
a(F40.64250732999993
F-73.864796820000052
tp1912
a(F40.646368119999927
F-73.864796820000052
tp1913
a(F40.650228909999925
F-73.864796820000052
tp1914
a(F40.654089699999922
F-73.864796820000052
tp1915
a(F40.657950489999919
F-73.864796820000052
tp1916
a(F40.661811279999917
F-73.864796820000052
tp1917
a(F40.665672069999914
F-73.864796820000052
tp1918
a(F40.669532859999912
F-73.864796820000052
tp1919
a(F40.538266
F-73.858946600000053
tp1920
a(F40.542126789999998
F-73.858946600000053
tp1921
a(F40.545987579999995
F-73.858946600000053
tp1922
a(F40.549848369999992
F-73.858946600000053
tp1923
a(F40.55370915999999
F-73.858946600000053
tp1924
a(F40.557569949999987
F-73.858946600000053
tp1925
a(F40.561430739999984
F-73.858946600000053
tp1926
a(F40.565291529999982
F-73.858946600000053
tp1927
a(F40.569152319999979
F-73.858946600000053
tp1928
a(F40.573013109999977
F-73.858946600000053
tp1929
a(F40.576873899999974
F-73.858946600000053
tp1930
a(F40.580734689999971
F-73.858946600000053
tp1931
a(F40.584595479999969
F-73.858946600000053
tp1932
a(F40.588456269999966
F-73.858946600000053
tp1933
a(F40.592317059999964
F-73.858946600000053
tp1934
a(F40.596177849999961
F-73.858946600000053
tp1935
a(F40.600038639999958
F-73.858946600000053
tp1936
a(F40.603899429999956
F-73.858946600000053
tp1937
a(F40.607760219999953
F-73.858946600000053
tp1938
a(F40.611621009999951
F-73.858946600000053
tp1939
a(F40.615481799999948
F-73.858946600000053
tp1940
a(F40.619342589999945
F-73.858946600000053
tp1941
a(F40.623203379999943
F-73.858946600000053
tp1942
a(F40.62706416999994
F-73.858946600000053
tp1943
a(F40.630924959999938
F-73.858946600000053
tp1944
a(F40.634785749999935
F-73.858946600000053
tp1945
a(F40.638646539999932
F-73.858946600000053
tp1946
a(F40.64250732999993
F-73.858946600000053
tp1947
a(F40.646368119999927
F-73.858946600000053
tp1948
a(F40.650228909999925
F-73.858946600000053
tp1949
a(F40.654089699999922
F-73.858946600000053
tp1950
a(F40.657950489999919
F-73.858946600000053
tp1951
a(F40.661811279999917
F-73.858946600000053
tp1952
a(F40.665672069999914
F-73.858946600000053
tp1953
a(F40.669532859999912
F-73.858946600000053
tp1954
a(F40.538266
F-73.853096380000054
tp1955
a(F40.542126789999998
F-73.853096380000054
tp1956
a(F40.545987579999995
F-73.853096380000054
tp1957
a(F40.549848369999992
F-73.853096380000054
tp1958
a(F40.55370915999999
F-73.853096380000054
tp1959
a(F40.557569949999987
F-73.853096380000054
tp1960
a(F40.561430739999984
F-73.853096380000054
tp1961
a(F40.565291529999982
F-73.853096380000054
tp1962
a(F40.569152319999979
F-73.853096380000054
tp1963
a(F40.573013109999977
F-73.853096380000054
tp1964
a(F40.576873899999974
F-73.853096380000054
tp1965
a(F40.580734689999971
F-73.853096380000054
tp1966
a(F40.584595479999969
F-73.853096380000054
tp1967
a(F40.588456269999966
F-73.853096380000054
tp1968
a(F40.592317059999964
F-73.853096380000054
tp1969
a(F40.596177849999961
F-73.853096380000054
tp1970
a(F40.600038639999958
F-73.853096380000054
tp1971
a(F40.603899429999956
F-73.853096380000054
tp1972
a(F40.607760219999953
F-73.853096380000054
tp1973
a(F40.611621009999951
F-73.853096380000054
tp1974
a(F40.615481799999948
F-73.853096380000054
tp1975
a(F40.619342589999945
F-73.853096380000054
tp1976
a(F40.623203379999943
F-73.853096380000054
tp1977
a(F40.62706416999994
F-73.853096380000054
tp1978
a(F40.630924959999938
F-73.853096380000054
tp1979
a(F40.634785749999935
F-73.853096380000054
tp1980
a(F40.638646539999932
F-73.853096380000054
tp1981
a(F40.64250732999993
F-73.853096380000054
tp1982
a(F40.646368119999927
F-73.853096380000054
tp1983
a(F40.650228909999925
F-73.853096380000054
tp1984
a(F40.654089699999922
F-73.853096380000054
tp1985
a(F40.657950489999919
F-73.853096380000054
tp1986
a(F40.661811279999917
F-73.853096380000054
tp1987
a(F40.665672069999914
F-73.853096380000054
tp1988
a(F40.669532859999912
F-73.853096380000054
tp1989
a(F40.538266
F-73.847246160000054
tp1990
a(F40.542126789999998
F-73.847246160000054
tp1991
a(F40.545987579999995
F-73.847246160000054
tp1992
a(F40.549848369999992
F-73.847246160000054
tp1993
a(F40.55370915999999
F-73.847246160000054
tp1994
a(F40.557569949999987
F-73.847246160000054
tp1995
a(F40.561430739999984
F-73.847246160000054
tp1996
a(F40.565291529999982
F-73.847246160000054
tp1997
a(F40.569152319999979
F-73.847246160000054
tp1998
a(F40.573013109999977
F-73.847246160000054
tp1999
a(F40.576873899999974
F-73.847246160000054
tp2000
a(F40.580734689999971
F-73.847246160000054
tp2001
a(F40.584595479999969
F-73.847246160000054
tp2002
a(F40.588456269999966
F-73.847246160000054
tp2003
a(F40.592317059999964
F-73.847246160000054
tp2004
a(F40.596177849999961
F-73.847246160000054
tp2005
a(F40.600038639999958
F-73.847246160000054
tp2006
a(F40.603899429999956
F-73.847246160000054
tp2007
a(F40.607760219999953
F-73.847246160000054
tp2008
a(F40.611621009999951
F-73.847246160000054
tp2009
a(F40.615481799999948
F-73.847246160000054
tp2010
a(F40.619342589999945
F-73.847246160000054
tp2011
a(F40.623203379999943
F-73.847246160000054
tp2012
a(F40.62706416999994
F-73.847246160000054
tp2013
a(F40.630924959999938
F-73.847246160000054
tp2014
a(F40.634785749999935
F-73.847246160000054
tp2015
a(F40.638646539999932
F-73.847246160000054
tp2016
a(F40.64250732999993
F-73.847246160000054
tp2017
a(F40.646368119999927
F-73.847246160000054
tp2018
a(F40.650228909999925
F-73.847246160000054
tp2019
a(F40.654089699999922
F-73.847246160000054
tp2020
a(F40.657950489999919
F-73.847246160000054
tp2021
a(F40.661811279999917
F-73.847246160000054
tp2022
a(F40.665672069999914
F-73.847246160000054
tp2023
a(F40.669532859999912
F-73.847246160000054
tp2024
a(F40.538266
F-73.841395940000055
tp2025
a(F40.542126789999998
F-73.841395940000055
tp2026
a(F40.545987579999995
F-73.841395940000055
tp2027
a(F40.549848369999992
F-73.841395940000055
tp2028
a(F40.55370915999999
F-73.841395940000055
tp2029
a(F40.557569949999987
F-73.841395940000055
tp2030
a(F40.561430739999984
F-73.841395940000055
tp2031
a(F40.565291529999982
F-73.841395940000055
tp2032
a(F40.569152319999979
F-73.841395940000055
tp2033
a(F40.573013109999977
F-73.841395940000055
tp2034
a(F40.576873899999974
F-73.841395940000055
tp2035
a(F40.580734689999971
F-73.841395940000055
tp2036
a(F40.584595479999969
F-73.841395940000055
tp2037
a(F40.588456269999966
F-73.841395940000055
tp2038
a(F40.592317059999964
F-73.841395940000055
tp2039
a(F40.596177849999961
F-73.841395940000055
tp2040
a(F40.600038639999958
F-73.841395940000055
tp2041
a(F40.603899429999956
F-73.841395940000055
tp2042
a(F40.607760219999953
F-73.841395940000055
tp2043
a(F40.611621009999951
F-73.841395940000055
tp2044
a(F40.615481799999948
F-73.841395940000055
tp2045
a(F40.619342589999945
F-73.841395940000055
tp2046
a(F40.623203379999943
F-73.841395940000055
tp2047
a(F40.62706416999994
F-73.841395940000055
tp2048
a(F40.630924959999938
F-73.841395940000055
tp2049
a(F40.634785749999935
F-73.841395940000055
tp2050
a(F40.638646539999932
F-73.841395940000055
tp2051
a(F40.64250732999993
F-73.841395940000055
tp2052
a(F40.646368119999927
F-73.841395940000055
tp2053
a(F40.650228909999925
F-73.841395940000055
tp2054
a(F40.654089699999922
F-73.841395940000055
tp2055
a(F40.657950489999919
F-73.841395940000055
tp2056
a(F40.661811279999917
F-73.841395940000055
tp2057
a(F40.665672069999914
F-73.841395940000055
tp2058
a(F40.669532859999912
F-73.841395940000055
tp2059
a(F40.538266
F-73.835545720000056
tp2060
a(F40.542126789999998
F-73.835545720000056
tp2061
a(F40.545987579999995
F-73.835545720000056
tp2062
a(F40.549848369999992
F-73.835545720000056
tp2063
a(F40.55370915999999
F-73.835545720000056
tp2064
a(F40.557569949999987
F-73.835545720000056
tp2065
a(F40.561430739999984
F-73.835545720000056
tp2066
a(F40.565291529999982
F-73.835545720000056
tp2067
a(F40.569152319999979
F-73.835545720000056
tp2068
a(F40.573013109999977
F-73.835545720000056
tp2069
a(F40.576873899999974
F-73.835545720000056
tp2070
a(F40.580734689999971
F-73.835545720000056
tp2071
a(F40.584595479999969
F-73.835545720000056
tp2072
a(F40.588456269999966
F-73.835545720000056
tp2073
a(F40.592317059999964
F-73.835545720000056
tp2074
a(F40.596177849999961
F-73.835545720000056
tp2075
a(F40.600038639999958
F-73.835545720000056
tp2076
a(F40.603899429999956
F-73.835545720000056
tp2077
a(F40.607760219999953
F-73.835545720000056
tp2078
a(F40.611621009999951
F-73.835545720000056
tp2079
a(F40.615481799999948
F-73.835545720000056
tp2080
a(F40.619342589999945
F-73.835545720000056
tp2081
a(F40.623203379999943
F-73.835545720000056
tp2082
a(F40.62706416999994
F-73.835545720000056
tp2083
a(F40.630924959999938
F-73.835545720000056
tp2084
a(F40.634785749999935
F-73.835545720000056
tp2085
a(F40.638646539999932
F-73.835545720000056
tp2086
a(F40.64250732999993
F-73.835545720000056
tp2087
a(F40.646368119999927
F-73.835545720000056
tp2088
a(F40.650228909999925
F-73.835545720000056
tp2089
a(F40.654089699999922
F-73.835545720000056
tp2090
a(F40.657950489999919
F-73.835545720000056
tp2091
a(F40.661811279999917
F-73.835545720000056
tp2092
a(F40.665672069999914
F-73.835545720000056
tp2093
a(F40.669532859999912
F-73.835545720000056
tp2094
a(F40.538266
F-73.829695500000057
tp2095
a(F40.542126789999998
F-73.829695500000057
tp2096
a(F40.545987579999995
F-73.829695500000057
tp2097
a(F40.549848369999992
F-73.829695500000057
tp2098
a(F40.55370915999999
F-73.829695500000057
tp2099
a(F40.557569949999987
F-73.829695500000057
tp2100
a(F40.561430739999984
F-73.829695500000057
tp2101
a(F40.565291529999982
F-73.829695500000057
tp2102
a(F40.569152319999979
F-73.829695500000057
tp2103
a(F40.573013109999977
F-73.829695500000057
tp2104
a(F40.576873899999974
F-73.829695500000057
tp2105
a(F40.580734689999971
F-73.829695500000057
tp2106
a(F40.584595479999969
F-73.829695500000057
tp2107
a(F40.588456269999966
F-73.829695500000057
tp2108
a(F40.592317059999964
F-73.829695500000057
tp2109
a(F40.596177849999961
F-73.829695500000057
tp2110
a(F40.600038639999958
F-73.829695500000057
tp2111
a(F40.603899429999956
F-73.829695500000057
tp2112
a(F40.607760219999953
F-73.829695500000057
tp2113
a(F40.611621009999951
F-73.829695500000057
tp2114
a(F40.615481799999948
F-73.829695500000057
tp2115
a(F40.619342589999945
F-73.829695500000057
tp2116
a(F40.623203379999943
F-73.829695500000057
tp2117
a(F40.62706416999994
F-73.829695500000057
tp2118
a(F40.630924959999938
F-73.829695500000057
tp2119
a(F40.634785749999935
F-73.829695500000057
tp2120
a(F40.638646539999932
F-73.829695500000057
tp2121
a(F40.64250732999993
F-73.829695500000057
tp2122
a(F40.646368119999927
F-73.829695500000057
tp2123
a(F40.650228909999925
F-73.829695500000057
tp2124
a(F40.654089699999922
F-73.829695500000057
tp2125
a(F40.657950489999919
F-73.829695500000057
tp2126
a(F40.661811279999917
F-73.829695500000057
tp2127
a(F40.665672069999914
F-73.829695500000057
tp2128
a(F40.669532859999912
F-73.829695500000057
tp2129
a(F40.538266
F-73.823845280000057
tp2130
a(F40.542126789999998
F-73.823845280000057
tp2131
a(F40.545987579999995
F-73.823845280000057
tp2132
a(F40.549848369999992
F-73.823845280000057
tp2133
a(F40.55370915999999
F-73.823845280000057
tp2134
a(F40.557569949999987
F-73.823845280000057
tp2135
a(F40.561430739999984
F-73.823845280000057
tp2136
a(F40.565291529999982
F-73.823845280000057
tp2137
a(F40.569152319999979
F-73.823845280000057
tp2138
a(F40.573013109999977
F-73.823845280000057
tp2139
a(F40.576873899999974
F-73.823845280000057
tp2140
a(F40.580734689999971
F-73.823845280000057
tp2141
a(F40.584595479999969
F-73.823845280000057
tp2142
a(F40.588456269999966
F-73.823845280000057
tp2143
a(F40.592317059999964
F-73.823845280000057
tp2144
a(F40.596177849999961
F-73.823845280000057
tp2145
a(F40.600038639999958
F-73.823845280000057
tp2146
a(F40.603899429999956
F-73.823845280000057
tp2147
a(F40.607760219999953
F-73.823845280000057
tp2148
a(F40.611621009999951
F-73.823845280000057
tp2149
a(F40.615481799999948
F-73.823845280000057
tp2150
a(F40.619342589999945
F-73.823845280000057
tp2151
a(F40.623203379999943
F-73.823845280000057
tp2152
a(F40.62706416999994
F-73.823845280000057
tp2153
a(F40.630924959999938
F-73.823845280000057
tp2154
a(F40.634785749999935
F-73.823845280000057
tp2155
a(F40.638646539999932
F-73.823845280000057
tp2156
a(F40.64250732999993
F-73.823845280000057
tp2157
a(F40.646368119999927
F-73.823845280000057
tp2158
a(F40.650228909999925
F-73.823845280000057
tp2159
a(F40.654089699999922
F-73.823845280000057
tp2160
a(F40.657950489999919
F-73.823845280000057
tp2161
a(F40.661811279999917
F-73.823845280000057
tp2162
a(F40.665672069999914
F-73.823845280000057
tp2163
a(F40.669532859999912
F-73.823845280000057
tp2164
a(F40.538266
F-73.817995060000058
tp2165
a(F40.542126789999998
F-73.817995060000058
tp2166
a(F40.545987579999995
F-73.817995060000058
tp2167
a(F40.549848369999992
F-73.817995060000058
tp2168
a(F40.55370915999999
F-73.817995060000058
tp2169
a(F40.557569949999987
F-73.817995060000058
tp2170
a(F40.561430739999984
F-73.817995060000058
tp2171
a(F40.565291529999982
F-73.817995060000058
tp2172
a(F40.569152319999979
F-73.817995060000058
tp2173
a(F40.573013109999977
F-73.817995060000058
tp2174
a(F40.576873899999974
F-73.817995060000058
tp2175
a(F40.580734689999971
F-73.817995060000058
tp2176
a(F40.584595479999969
F-73.817995060000058
tp2177
a(F40.588456269999966
F-73.817995060000058
tp2178
a(F40.592317059999964
F-73.817995060000058
tp2179
a(F40.596177849999961
F-73.817995060000058
tp2180
a(F40.600038639999958
F-73.817995060000058
tp2181
a(F40.603899429999956
F-73.817995060000058
tp2182
a(F40.607760219999953
F-73.817995060000058
tp2183
a(F40.611621009999951
F-73.817995060000058
tp2184
a(F40.615481799999948
F-73.817995060000058
tp2185
a(F40.619342589999945
F-73.817995060000058
tp2186
a(F40.623203379999943
F-73.817995060000058
tp2187
a(F40.62706416999994
F-73.817995060000058
tp2188
a(F40.630924959999938
F-73.817995060000058
tp2189
a(F40.634785749999935
F-73.817995060000058
tp2190
a(F40.638646539999932
F-73.817995060000058
tp2191
a(F40.64250732999993
F-73.817995060000058
tp2192
a(F40.646368119999927
F-73.817995060000058
tp2193
a(F40.650228909999925
F-73.817995060000058
tp2194
a(F40.654089699999922
F-73.817995060000058
tp2195
a(F40.657950489999919
F-73.817995060000058
tp2196
a(F40.661811279999917
F-73.817995060000058
tp2197
a(F40.665672069999914
F-73.817995060000058
tp2198
a(F40.669532859999912
F-73.817995060000058
tp2199
a(F40.538266
F-73.812144840000059
tp2200
a(F40.542126789999998
F-73.812144840000059
tp2201
a(F40.545987579999995
F-73.812144840000059
tp2202
a(F40.549848369999992
F-73.812144840000059
tp2203
a(F40.55370915999999
F-73.812144840000059
tp2204
a(F40.557569949999987
F-73.812144840000059
tp2205
a(F40.561430739999984
F-73.812144840000059
tp2206
a(F40.565291529999982
F-73.812144840000059
tp2207
a(F40.569152319999979
F-73.812144840000059
tp2208
a(F40.573013109999977
F-73.812144840000059
tp2209
a(F40.576873899999974
F-73.812144840000059
tp2210
a(F40.580734689999971
F-73.812144840000059
tp2211
a(F40.584595479999969
F-73.812144840000059
tp2212
a(F40.588456269999966
F-73.812144840000059
tp2213
a(F40.592317059999964
F-73.812144840000059
tp2214
a(F40.596177849999961
F-73.812144840000059
tp2215
a(F40.600038639999958
F-73.812144840000059
tp2216
a(F40.603899429999956
F-73.812144840000059
tp2217
a(F40.607760219999953
F-73.812144840000059
tp2218
a(F40.611621009999951
F-73.812144840000059
tp2219
a(F40.615481799999948
F-73.812144840000059
tp2220
a(F40.619342589999945
F-73.812144840000059
tp2221
a(F40.623203379999943
F-73.812144840000059
tp2222
a(F40.62706416999994
F-73.812144840000059
tp2223
a(F40.630924959999938
F-73.812144840000059
tp2224
a(F40.634785749999935
F-73.812144840000059
tp2225
a(F40.638646539999932
F-73.812144840000059
tp2226
a(F40.64250732999993
F-73.812144840000059
tp2227
a(F40.646368119999927
F-73.812144840000059
tp2228
a(F40.650228909999925
F-73.812144840000059
tp2229
a(F40.654089699999922
F-73.812144840000059
tp2230
a(F40.657950489999919
F-73.812144840000059
tp2231
a(F40.661811279999917
F-73.812144840000059
tp2232
a(F40.665672069999914
F-73.812144840000059
tp2233
a(F40.669532859999912
F-73.812144840000059
tp2234
a(F40.538266
F-73.80629462000006
tp2235
a(F40.542126789999998
F-73.80629462000006
tp2236
a(F40.545987579999995
F-73.80629462000006
tp2237
a(F40.549848369999992
F-73.80629462000006
tp2238
a(F40.55370915999999
F-73.80629462000006
tp2239
a(F40.557569949999987
F-73.80629462000006
tp2240
a(F40.561430739999984
F-73.80629462000006
tp2241
a(F40.565291529999982
F-73.80629462000006
tp2242
a(F40.569152319999979
F-73.80629462000006
tp2243
a(F40.573013109999977
F-73.80629462000006
tp2244
a(F40.576873899999974
F-73.80629462000006
tp2245
a(F40.580734689999971
F-73.80629462000006
tp2246
a(F40.584595479999969
F-73.80629462000006
tp2247
a(F40.588456269999966
F-73.80629462000006
tp2248
a(F40.592317059999964
F-73.80629462000006
tp2249
a(F40.596177849999961
F-73.80629462000006
tp2250
a(F40.600038639999958
F-73.80629462000006
tp2251
a(F40.603899429999956
F-73.80629462000006
tp2252
a(F40.607760219999953
F-73.80629462000006
tp2253
a(F40.611621009999951
F-73.80629462000006
tp2254
a(F40.615481799999948
F-73.80629462000006
tp2255
a(F40.619342589999945
F-73.80629462000006
tp2256
a(F40.623203379999943
F-73.80629462000006
tp2257
a(F40.62706416999994
F-73.80629462000006
tp2258
a(F40.630924959999938
F-73.80629462000006
tp2259
a(F40.634785749999935
F-73.80629462000006
tp2260
a(F40.638646539999932
F-73.80629462000006
tp2261
a(F40.64250732999993
F-73.80629462000006
tp2262
a(F40.646368119999927
F-73.80629462000006
tp2263
a(F40.650228909999925
F-73.80629462000006
tp2264
a(F40.654089699999922
F-73.80629462000006
tp2265
a(F40.657950489999919
F-73.80629462000006
tp2266
a(F40.661811279999917
F-73.80629462000006
tp2267
a(F40.665672069999914
F-73.80629462000006
tp2268
a(F40.669532859999912
F-73.80629462000006
tp2269
a(F40.538266
F-73.80044440000006
tp2270
a(F40.542126789999998
F-73.80044440000006
tp2271
a(F40.545987579999995
F-73.80044440000006
tp2272
a(F40.549848369999992
F-73.80044440000006
tp2273
a(F40.55370915999999
F-73.80044440000006
tp2274
a(F40.557569949999987
F-73.80044440000006
tp2275
a(F40.561430739999984
F-73.80044440000006
tp2276
a(F40.565291529999982
F-73.80044440000006
tp2277
a(F40.569152319999979
F-73.80044440000006
tp2278
a(F40.573013109999977
F-73.80044440000006
tp2279
a(F40.576873899999974
F-73.80044440000006
tp2280
a(F40.580734689999971
F-73.80044440000006
tp2281
a(F40.584595479999969
F-73.80044440000006
tp2282
a(F40.588456269999966
F-73.80044440000006
tp2283
a(F40.592317059999964
F-73.80044440000006
tp2284
a(F40.596177849999961
F-73.80044440000006
tp2285
a(F40.600038639999958
F-73.80044440000006
tp2286
a(F40.603899429999956
F-73.80044440000006
tp2287
a(F40.607760219999953
F-73.80044440000006
tp2288
a(F40.611621009999951
F-73.80044440000006
tp2289
a(F40.615481799999948
F-73.80044440000006
tp2290
a(F40.619342589999945
F-73.80044440000006
tp2291
a(F40.623203379999943
F-73.80044440000006
tp2292
a(F40.62706416999994
F-73.80044440000006
tp2293
a(F40.630924959999938
F-73.80044440000006
tp2294
a(F40.634785749999935
F-73.80044440000006
tp2295
a(F40.638646539999932
F-73.80044440000006
tp2296
a(F40.64250732999993
F-73.80044440000006
tp2297
a(F40.646368119999927
F-73.80044440000006
tp2298
a(F40.650228909999925
F-73.80044440000006
tp2299
a(F40.654089699999922
F-73.80044440000006
tp2300
a(F40.657950489999919
F-73.80044440000006
tp2301
a(F40.661811279999917
F-73.80044440000006
tp2302
a(F40.665672069999914
F-73.80044440000006
tp2303
a(F40.669532859999912
F-73.80044440000006
tp2304
a(F40.538266
F-73.794594180000061
tp2305
a(F40.542126789999998
F-73.794594180000061
tp2306
a(F40.545987579999995
F-73.794594180000061
tp2307
a(F40.549848369999992
F-73.794594180000061
tp2308
a(F40.55370915999999
F-73.794594180000061
tp2309
a(F40.557569949999987
F-73.794594180000061
tp2310
a(F40.561430739999984
F-73.794594180000061
tp2311
a(F40.565291529999982
F-73.794594180000061
tp2312
a(F40.569152319999979
F-73.794594180000061
tp2313
a(F40.573013109999977
F-73.794594180000061
tp2314
a(F40.576873899999974
F-73.794594180000061
tp2315
a(F40.580734689999971
F-73.794594180000061
tp2316
a(F40.584595479999969
F-73.794594180000061
tp2317
a(F40.588456269999966
F-73.794594180000061
tp2318
a(F40.592317059999964
F-73.794594180000061
tp2319
a(F40.596177849999961
F-73.794594180000061
tp2320
a(F40.600038639999958
F-73.794594180000061
tp2321
a(F40.603899429999956
F-73.794594180000061
tp2322
a(F40.607760219999953
F-73.794594180000061
tp2323
a(F40.611621009999951
F-73.794594180000061
tp2324
a(F40.615481799999948
F-73.794594180000061
tp2325
a(F40.619342589999945
F-73.794594180000061
tp2326
a(F40.623203379999943
F-73.794594180000061
tp2327
a(F40.62706416999994
F-73.794594180000061
tp2328
a(F40.630924959999938
F-73.794594180000061
tp2329
a(F40.634785749999935
F-73.794594180000061
tp2330
a(F40.638646539999932
F-73.794594180000061
tp2331
a(F40.64250732999993
F-73.794594180000061
tp2332
a(F40.646368119999927
F-73.794594180000061
tp2333
a(F40.650228909999925
F-73.794594180000061
tp2334
a(F40.654089699999922
F-73.794594180000061
tp2335
a(F40.657950489999919
F-73.794594180000061
tp2336
a(F40.661811279999917
F-73.794594180000061
tp2337
a(F40.665672069999914
F-73.794594180000061
tp2338
a(F40.669532859999912
F-73.794594180000061
tp2339
a(F40.538266
F-73.788743960000062
tp2340
a(F40.542126789999998
F-73.788743960000062
tp2341
a(F40.545987579999995
F-73.788743960000062
tp2342
a(F40.549848369999992
F-73.788743960000062
tp2343
a(F40.55370915999999
F-73.788743960000062
tp2344
a(F40.557569949999987
F-73.788743960000062
tp2345
a(F40.561430739999984
F-73.788743960000062
tp2346
a(F40.565291529999982
F-73.788743960000062
tp2347
a(F40.569152319999979
F-73.788743960000062
tp2348
a(F40.573013109999977
F-73.788743960000062
tp2349
a(F40.576873899999974
F-73.788743960000062
tp2350
a(F40.580734689999971
F-73.788743960000062
tp2351
a(F40.584595479999969
F-73.788743960000062
tp2352
a(F40.588456269999966
F-73.788743960000062
tp2353
a(F40.592317059999964
F-73.788743960000062
tp2354
a(F40.596177849999961
F-73.788743960000062
tp2355
a(F40.600038639999958
F-73.788743960000062
tp2356
a(F40.603899429999956
F-73.788743960000062
tp2357
a(F40.607760219999953
F-73.788743960000062
tp2358
a(F40.611621009999951
F-73.788743960000062
tp2359
a(F40.615481799999948
F-73.788743960000062
tp2360
a(F40.619342589999945
F-73.788743960000062
tp2361
a(F40.623203379999943
F-73.788743960000062
tp2362
a(F40.62706416999994
F-73.788743960000062
tp2363
a(F40.630924959999938
F-73.788743960000062
tp2364
a(F40.634785749999935
F-73.788743960000062
tp2365
a(F40.638646539999932
F-73.788743960000062
tp2366
a(F40.64250732999993
F-73.788743960000062
tp2367
a(F40.646368119999927
F-73.788743960000062
tp2368
a(F40.650228909999925
F-73.788743960000062
tp2369
a(F40.654089699999922
F-73.788743960000062
tp2370
a(F40.657950489999919
F-73.788743960000062
tp2371
a(F40.661811279999917
F-73.788743960000062
tp2372
a(F40.665672069999914
F-73.788743960000062
tp2373
a(F40.669532859999912
F-73.788743960000062
tp2374
a(F40.538266
F-73.782893740000063
tp2375
a(F40.542126789999998
F-73.782893740000063
tp2376
a(F40.545987579999995
F-73.782893740000063
tp2377
a(F40.549848369999992
F-73.782893740000063
tp2378
a(F40.55370915999999
F-73.782893740000063
tp2379
a(F40.557569949999987
F-73.782893740000063
tp2380
a(F40.561430739999984
F-73.782893740000063
tp2381
a(F40.565291529999982
F-73.782893740000063
tp2382
a(F40.569152319999979
F-73.782893740000063
tp2383
a(F40.573013109999977
F-73.782893740000063
tp2384
a(F40.576873899999974
F-73.782893740000063
tp2385
a(F40.580734689999971
F-73.782893740000063
tp2386
a(F40.584595479999969
F-73.782893740000063
tp2387
a(F40.588456269999966
F-73.782893740000063
tp2388
a(F40.592317059999964
F-73.782893740000063
tp2389
a(F40.596177849999961
F-73.782893740000063
tp2390
a(F40.600038639999958
F-73.782893740000063
tp2391
a(F40.603899429999956
F-73.782893740000063
tp2392
a(F40.607760219999953
F-73.782893740000063
tp2393
a(F40.611621009999951
F-73.782893740000063
tp2394
a(F40.615481799999948
F-73.782893740000063
tp2395
a(F40.619342589999945
F-73.782893740000063
tp2396
a(F40.623203379999943
F-73.782893740000063
tp2397
a(F40.62706416999994
F-73.782893740000063
tp2398
a(F40.630924959999938
F-73.782893740000063
tp2399
a(F40.634785749999935
F-73.782893740000063
tp2400
a(F40.638646539999932
F-73.782893740000063
tp2401
a(F40.64250732999993
F-73.782893740000063
tp2402
a(F40.646368119999927
F-73.782893740000063
tp2403
a(F40.650228909999925
F-73.782893740000063
tp2404
a(F40.654089699999922
F-73.782893740000063
tp2405
a(F40.657950489999919
F-73.782893740000063
tp2406
a(F40.661811279999917
F-73.782893740000063
tp2407
a(F40.665672069999914
F-73.782893740000063
tp2408
a(F40.669532859999912
F-73.782893740000063
tp2409
a(F40.538266
F-73.777043520000063
tp2410
a(F40.542126789999998
F-73.777043520000063
tp2411
a(F40.545987579999995
F-73.777043520000063
tp2412
a(F40.549848369999992
F-73.777043520000063
tp2413
a(F40.55370915999999
F-73.777043520000063
tp2414
a(F40.557569949999987
F-73.777043520000063
tp2415
a(F40.561430739999984
F-73.777043520000063
tp2416
a(F40.565291529999982
F-73.777043520000063
tp2417
a(F40.569152319999979
F-73.777043520000063
tp2418
a(F40.573013109999977
F-73.777043520000063
tp2419
a(F40.576873899999974
F-73.777043520000063
tp2420
a(F40.580734689999971
F-73.777043520000063
tp2421
a(F40.584595479999969
F-73.777043520000063
tp2422
a(F40.588456269999966
F-73.777043520000063
tp2423
a(F40.592317059999964
F-73.777043520000063
tp2424
a(F40.596177849999961
F-73.777043520000063
tp2425
a(F40.600038639999958
F-73.777043520000063
tp2426
a(F40.603899429999956
F-73.777043520000063
tp2427
a(F40.607760219999953
F-73.777043520000063
tp2428
a(F40.611621009999951
F-73.777043520000063
tp2429
a(F40.615481799999948
F-73.777043520000063
tp2430
a(F40.619342589999945
F-73.777043520000063
tp2431
a(F40.623203379999943
F-73.777043520000063
tp2432
a(F40.62706416999994
F-73.777043520000063
tp2433
a(F40.630924959999938
F-73.777043520000063
tp2434
a(F40.634785749999935
F-73.777043520000063
tp2435
a(F40.638646539999932
F-73.777043520000063
tp2436
a(F40.64250732999993
F-73.777043520000063
tp2437
a(F40.646368119999927
F-73.777043520000063
tp2438
a(F40.650228909999925
F-73.777043520000063
tp2439
a(F40.654089699999922
F-73.777043520000063
tp2440
a(F40.657950489999919
F-73.777043520000063
tp2441
a(F40.661811279999917
F-73.777043520000063
tp2442
a(F40.665672069999914
F-73.777043520000063
tp2443
a(F40.669532859999912
F-73.777043520000063
tp2444
a(F40.538266
F-73.771193300000064
tp2445
a(F40.542126789999998
F-73.771193300000064
tp2446
a(F40.545987579999995
F-73.771193300000064
tp2447
a(F40.549848369999992
F-73.771193300000064
tp2448
a(F40.55370915999999
F-73.771193300000064
tp2449
a(F40.557569949999987
F-73.771193300000064
tp2450
a(F40.561430739999984
F-73.771193300000064
tp2451
a(F40.565291529999982
F-73.771193300000064
tp2452
a(F40.569152319999979
F-73.771193300000064
tp2453
a(F40.573013109999977
F-73.771193300000064
tp2454
a(F40.576873899999974
F-73.771193300000064
tp2455
a(F40.580734689999971
F-73.771193300000064
tp2456
a(F40.584595479999969
F-73.771193300000064
tp2457
a(F40.588456269999966
F-73.771193300000064
tp2458
a(F40.592317059999964
F-73.771193300000064
tp2459
a(F40.596177849999961
F-73.771193300000064
tp2460
a(F40.600038639999958
F-73.771193300000064
tp2461
a(F40.603899429999956
F-73.771193300000064
tp2462
a(F40.607760219999953
F-73.771193300000064
tp2463
a(F40.611621009999951
F-73.771193300000064
tp2464
a(F40.615481799999948
F-73.771193300000064
tp2465
a(F40.619342589999945
F-73.771193300000064
tp2466
a(F40.623203379999943
F-73.771193300000064
tp2467
a(F40.62706416999994
F-73.771193300000064
tp2468
a(F40.630924959999938
F-73.771193300000064
tp2469
a(F40.634785749999935
F-73.771193300000064
tp2470
a(F40.638646539999932
F-73.771193300000064
tp2471
a(F40.64250732999993
F-73.771193300000064
tp2472
a(F40.646368119999927
F-73.771193300000064
tp2473
a(F40.650228909999925
F-73.771193300000064
tp2474
a(F40.654089699999922
F-73.771193300000064
tp2475
a(F40.657950489999919
F-73.771193300000064
tp2476
a(F40.661811279999917
F-73.771193300000064
tp2477
a(F40.665672069999914
F-73.771193300000064
tp2478
a(F40.669532859999912
F-73.771193300000064
tp2479
a(F40.545987579999995
F-73.765343080000065
tp2480
a(F40.549848369999992
F-73.765343080000065
tp2481
a(F40.55370915999999
F-73.765343080000065
tp2482
a(F40.557569949999987
F-73.765343080000065
tp2483
a(F40.561430739999984
F-73.765343080000065
tp2484
a(F40.565291529999982
F-73.765343080000065
tp2485
a(F40.569152319999979
F-73.765343080000065
tp2486
a(F40.573013109999977
F-73.765343080000065
tp2487
a(F40.576873899999974
F-73.765343080000065
tp2488
a(F40.580734689999971
F-73.765343080000065
tp2489
a(F40.584595479999969
F-73.765343080000065
tp2490
a(F40.588456269999966
F-73.765343080000065
tp2491
a(F40.592317059999964
F-73.765343080000065
tp2492
a(F40.596177849999961
F-73.765343080000065
tp2493
a(F40.600038639999958
F-73.765343080000065
tp2494
a(F40.603899429999956
F-73.765343080000065
tp2495
a(F40.607760219999953
F-73.765343080000065
tp2496
a(F40.611621009999951
F-73.765343080000065
tp2497
a(F40.62706416999994
F-73.765343080000065
tp2498
a(F40.630924959999938
F-73.765343080000065
tp2499
a(F40.634785749999935
F-73.765343080000065
tp2500
a(F40.638646539999932
F-73.765343080000065
tp2501
a(F40.64250732999993
F-73.765343080000065
tp2502
a(F40.646368119999927
F-73.765343080000065
tp2503
a(F40.650228909999925
F-73.765343080000065
tp2504
a(F40.654089699999922
F-73.765343080000065
tp2505
a(F40.657950489999919
F-73.765343080000065
tp2506
a(F40.661811279999917
F-73.765343080000065
tp2507
a(F40.665672069999914
F-73.765343080000065
tp2508
a(F40.669532859999912
F-73.765343080000065
tp2509
a(F40.557569949999987
F-73.759492860000066
tp2510
a(F40.561430739999984
F-73.759492860000066
tp2511
a(F40.565291529999982
F-73.759492860000066
tp2512
a(F40.569152319999979
F-73.759492860000066
tp2513
a(F40.573013109999977
F-73.759492860000066
tp2514
a(F40.576873899999974
F-73.759492860000066
tp2515
a(F40.580734689999971
F-73.759492860000066
tp2516
a(F40.584595479999969
F-73.759492860000066
tp2517
a(F40.588456269999966
F-73.759492860000066
tp2518
a(F40.592317059999964
F-73.759492860000066
tp2519
a(F40.596177849999961
F-73.759492860000066
tp2520
a(F40.600038639999958
F-73.759492860000066
tp2521
a(F40.603899429999956
F-73.759492860000066
tp2522
a(F40.607760219999953
F-73.759492860000066
tp2523
a(F40.630924959999938
F-73.759492860000066
tp2524
a(F40.634785749999935
F-73.759492860000066
tp2525
a(F40.638646539999932
F-73.759492860000066
tp2526
a(F40.64250732999993
F-73.759492860000066
tp2527
a(F40.646368119999927
F-73.759492860000066
tp2528
a(F40.650228909999925
F-73.759492860000066
tp2529
a(F40.654089699999922
F-73.759492860000066
tp2530
a(F40.657950489999919
F-73.759492860000066
tp2531
a(F40.661811279999917
F-73.759492860000066
tp2532
a(F40.665672069999914
F-73.759492860000066
tp2533
a(F40.669532859999912
F-73.759492860000066
tp2534
a(F40.588456269999966
F-73.753642640000066
tp2535
a(F40.592317059999964
F-73.753642640000066
tp2536
a(F40.596177849999961
F-73.753642640000066
tp2537
a(F40.600038639999958
F-73.753642640000066
tp2538
a(F40.603899429999956
F-73.753642640000066
tp2539
a(F40.607760219999953
F-73.753642640000066
tp2540
a(F40.630924959999938
F-73.753642640000066
tp2541
a(F40.634785749999935
F-73.753642640000066
tp2542
a(F40.638646539999932
F-73.753642640000066
tp2543
a(F40.64250732999993
F-73.753642640000066
tp2544
a(F40.646368119999927
F-73.753642640000066
tp2545
a(F40.650228909999925
F-73.753642640000066
tp2546
a(F40.654089699999922
F-73.753642640000066
tp2547
a(F40.657950489999919
F-73.753642640000066
tp2548
a(F40.661811279999917
F-73.753642640000066
tp2549
a(F40.665672069999914
F-73.753642640000066
tp2550
a(F40.669532859999912
F-73.753642640000066
tp2551
a(F40.592317059999964
F-73.747792420000067
tp2552
a(F40.596177849999961
F-73.747792420000067
tp2553
a(F40.600038639999958
F-73.747792420000067
tp2554
a(F40.603899429999956
F-73.747792420000067
tp2555
a(F40.607760219999953
F-73.747792420000067
tp2556
a(F40.611621009999951
F-73.747792420000067
tp2557
a(F40.634785749999935
F-73.747792420000067
tp2558
a(F40.638646539999932
F-73.747792420000067
tp2559
a(F40.64250732999993
F-73.747792420000067
tp2560
a(F40.646368119999927
F-73.747792420000067
tp2561
a(F40.650228909999925
F-73.747792420000067
tp2562
a(F40.654089699999922
F-73.747792420000067
tp2563
a(F40.657950489999919
F-73.747792420000067
tp2564
a(F40.661811279999917
F-73.747792420000067
tp2565
a(F40.665672069999914
F-73.747792420000067
tp2566
a(F40.669532859999912
F-73.747792420000067
tp2567
a(F40.596177849999961
F-73.741942200000068
tp2568
a(F40.600038639999958
F-73.741942200000068
tp2569
a(F40.603899429999956
F-73.741942200000068
tp2570
a(F40.638646539999932
F-73.741942200000068
tp2571
a(F40.646368119999927
F-73.741942200000068
tp2572
a(F40.650228909999925
F-73.741942200000068
tp2573
a(F40.654089699999922
F-73.741942200000068
tp2574
a(F40.657950489999919
F-73.741942200000068
tp2575
a(F40.661811279999917
F-73.741942200000068
tp2576
a(F40.665672069999914
F-73.741942200000068
tp2577
a(F40.669532859999912
F-73.741942200000068
tp2578
a(F40.650228909999925
F-73.736091980000069
tp2579
a(F40.654089699999922
F-73.736091980000069
tp2580
a(F40.657950489999919
F-73.736091980000069
tp2581
a(F40.661811279999917
F-73.736091980000069
tp2582
a(F40.665672069999914
F-73.736091980000069
tp2583
a(F40.669532859999912
F-73.736091980000069
tp2584
a(F40.654089699999922
F-73.730241760000069
tp2585
a(F40.657950489999919
F-73.730241760000069
tp2586
a(F40.661811279999917
F-73.730241760000069
tp2587
a(F40.665672069999914
F-73.730241760000069
tp2588
a(F40.669532859999912
F-73.730241760000069
tp2589
a.