(lp1
(F40.808521299999818
F-73.975951000000038
tp2
a(F40.808521299999818
F-73.970100780000038
tp3
a(F40.812382089999815
F-73.970100780000038
tp4
a(F40.816242879999812
F-73.970100780000038
tp5
a(F40.808521299999818
F-73.964250560000039
tp6
a(F40.812382089999815
F-73.964250560000039
tp7
a(F40.816242879999812
F-73.964250560000039
tp8
a(F40.82010366999981
F-73.964250560000039
tp9
a(F40.823964459999807
F-73.964250560000039
tp10
a(F40.808521299999818
F-73.95840034000004
tp11
a(F40.812382089999815
F-73.95840034000004
tp12
a(F40.816242879999812
F-73.95840034000004
tp13
a(F40.82010366999981
F-73.95840034000004
tp14
a(F40.823964459999807
F-73.95840034000004
tp15
a(F40.827825249999805
F-73.95840034000004
tp16
a(F40.831686039999802
F-73.95840034000004
tp17
a(F40.835546829999799
F-73.95840034000004
tp18
a(F40.808521299999818
F-73.952550120000041
tp19
a(F40.812382089999815
F-73.952550120000041
tp20
a(F40.816242879999812
F-73.952550120000041
tp21
a(F40.82010366999981
F-73.952550120000041
tp22
a(F40.823964459999807
F-73.952550120000041
tp23
a(F40.827825249999805
F-73.952550120000041
tp24
a(F40.831686039999802
F-73.952550120000041
tp25
a(F40.835546829999799
F-73.952550120000041
tp26
a(F40.839407619999797
F-73.952550120000041
tp27
a(F40.843268409999794
F-73.952550120000041
tp28
a(F40.847129199999792
F-73.952550120000041
tp29
a(F40.808521299999818
F-73.946699900000041
tp30
a(F40.812382089999815
F-73.946699900000041
tp31
a(F40.816242879999812
F-73.946699900000041
tp32
a(F40.82010366999981
F-73.946699900000041
tp33
a(F40.823964459999807
F-73.946699900000041
tp34
a(F40.827825249999805
F-73.946699900000041
tp35
a(F40.831686039999802
F-73.946699900000041
tp36
a(F40.835546829999799
F-73.946699900000041
tp37
a(F40.839407619999797
F-73.946699900000041
tp38
a(F40.843268409999794
F-73.946699900000041
tp39
a(F40.847129199999792
F-73.946699900000041
tp40
a(F40.850989989999789
F-73.946699900000041
tp41
a(F40.854850779999786
F-73.946699900000041
tp42
a(F40.858711569999784
F-73.946699900000041
tp43
a(F40.808521299999818
F-73.940849680000042
tp44
a(F40.812382089999815
F-73.940849680000042
tp45
a(F40.816242879999812
F-73.940849680000042
tp46
a(F40.82010366999981
F-73.940849680000042
tp47
a(F40.823964459999807
F-73.940849680000042
tp48
a(F40.827825249999805
F-73.940849680000042
tp49
a(F40.831686039999802
F-73.940849680000042
tp50
a(F40.835546829999799
F-73.940849680000042
tp51
a(F40.839407619999797
F-73.940849680000042
tp52
a(F40.843268409999794
F-73.940849680000042
tp53
a(F40.847129199999792
F-73.940849680000042
tp54
a(F40.850989989999789
F-73.940849680000042
tp55
a(F40.854850779999786
F-73.940849680000042
tp56
a(F40.858711569999784
F-73.940849680000042
tp57
a(F40.862572359999781
F-73.940849680000042
tp58
a(F40.866433149999779
F-73.940849680000042
tp59
a(F40.870293939999776
F-73.940849680000042
tp60
a(F40.808521299999818
F-73.934999460000043
tp61
a(F40.812382089999815
F-73.934999460000043
tp62
a(F40.816242879999812
F-73.934999460000043
tp63
a(F40.82010366999981
F-73.934999460000043
tp64
a(F40.823964459999807
F-73.934999460000043
tp65
a(F40.827825249999805
F-73.934999460000043
tp66
a(F40.831686039999802
F-73.934999460000043
tp67
a(F40.835546829999799
F-73.934999460000043
tp68
a(F40.839407619999797
F-73.934999460000043
tp69
a(F40.843268409999794
F-73.934999460000043
tp70
a(F40.847129199999792
F-73.934999460000043
tp71
a(F40.850989989999789
F-73.934999460000043
tp72
a(F40.854850779999786
F-73.934999460000043
tp73
a(F40.858711569999784
F-73.934999460000043
tp74
a(F40.862572359999781
F-73.934999460000043
tp75
a(F40.866433149999779
F-73.934999460000043
tp76
a(F40.870293939999776
F-73.934999460000043
tp77
a(F40.874154729999773
F-73.934999460000043
tp78
a(F40.878015519999771
F-73.934999460000043
tp79
a(F40.808521299999818
F-73.929149240000044
tp80
a(F40.812382089999815
F-73.929149240000044
tp81
a(F40.816242879999812
F-73.929149240000044
tp82
a(F40.82010366999981
F-73.929149240000044
tp83
a(F40.823964459999807
F-73.929149240000044
tp84
a(F40.827825249999805
F-73.929149240000044
tp85
a(F40.831686039999802
F-73.929149240000044
tp86
a(F40.835546829999799
F-73.929149240000044
tp87
a(F40.839407619999797
F-73.929149240000044
tp88
a(F40.843268409999794
F-73.929149240000044
tp89
a(F40.847129199999792
F-73.929149240000044
tp90
a(F40.850989989999789
F-73.929149240000044
tp91
a(F40.854850779999786
F-73.929149240000044
tp92
a(F40.858711569999784
F-73.929149240000044
tp93
a(F40.862572359999781
F-73.929149240000044
tp94
a(F40.866433149999779
F-73.929149240000044
tp95
a(F40.870293939999776
F-73.929149240000044
tp96
a(F40.874154729999773
F-73.929149240000044
tp97
a(F40.878015519999771
F-73.929149240000044
tp98
a(F40.881876309999768
F-73.929149240000044
tp99
a(F40.885737099999766
F-73.929149240000044
tp100
a(F40.889597889999763
F-73.929149240000044
tp101
a(F40.808521299999818
F-73.923299020000044
tp102
a(F40.812382089999815
F-73.923299020000044
tp103
a(F40.816242879999812
F-73.923299020000044
tp104
a(F40.82010366999981
F-73.923299020000044
tp105
a(F40.823964459999807
F-73.923299020000044
tp106
a(F40.827825249999805
F-73.923299020000044
tp107
a(F40.831686039999802
F-73.923299020000044
tp108
a(F40.835546829999799
F-73.923299020000044
tp109
a(F40.839407619999797
F-73.923299020000044
tp110
a(F40.843268409999794
F-73.923299020000044
tp111
a(F40.847129199999792
F-73.923299020000044
tp112
a(F40.850989989999789
F-73.923299020000044
tp113
a(F40.854850779999786
F-73.923299020000044
tp114
a(F40.858711569999784
F-73.923299020000044
tp115
a(F40.862572359999781
F-73.923299020000044
tp116
a(F40.866433149999779
F-73.923299020000044
tp117
a(F40.870293939999776
F-73.923299020000044
tp118
a(F40.874154729999773
F-73.923299020000044
tp119
a(F40.878015519999771
F-73.923299020000044
tp120
a(F40.881876309999768
F-73.923299020000044
tp121
a(F40.885737099999766
F-73.923299020000044
tp122
a(F40.889597889999763
F-73.923299020000044
tp123
a(F40.89345867999976
F-73.923299020000044
tp124
a(F40.897319469999758
F-73.923299020000044
tp125
a(F40.901180259999755
F-73.923299020000044
tp126
a(F40.905041049999753
F-73.923299020000044
tp127
a(F40.808521299999818
F-73.917448800000045
tp128
a(F40.812382089999815
F-73.917448800000045
tp129
a(F40.816242879999812
F-73.917448800000045
tp130
a(F40.82010366999981
F-73.917448800000045
tp131
a(F40.823964459999807
F-73.917448800000045
tp132
a(F40.827825249999805
F-73.917448800000045
tp133
a(F40.831686039999802
F-73.917448800000045
tp134
a(F40.835546829999799
F-73.917448800000045
tp135
a(F40.839407619999797
F-73.917448800000045
tp136
a(F40.843268409999794
F-73.917448800000045
tp137
a(F40.847129199999792
F-73.917448800000045
tp138
a(F40.850989989999789
F-73.917448800000045
tp139
a(F40.854850779999786
F-73.917448800000045
tp140
a(F40.858711569999784
F-73.917448800000045
tp141
a(F40.862572359999781
F-73.917448800000045
tp142
a(F40.866433149999779
F-73.917448800000045
tp143
a(F40.870293939999776
F-73.917448800000045
tp144
a(F40.874154729999773
F-73.917448800000045
tp145
a(F40.878015519999771
F-73.917448800000045
tp146
a(F40.881876309999768
F-73.917448800000045
tp147
a(F40.885737099999766
F-73.917448800000045
tp148
a(F40.889597889999763
F-73.917448800000045
tp149
a(F40.89345867999976
F-73.917448800000045
tp150
a(F40.897319469999758
F-73.917448800000045
tp151
a(F40.901180259999755
F-73.917448800000045
tp152
a(F40.905041049999753
F-73.917448800000045
tp153
a(F40.90890183999975
F-73.917448800000045
tp154
a(F40.912762629999747
F-73.917448800000045
tp155
a(F40.916623419999745
F-73.917448800000045
tp156
a(F40.808521299999818
F-73.911598580000046
tp157
a(F40.812382089999815
F-73.911598580000046
tp158
a(F40.816242879999812
F-73.911598580000046
tp159
a(F40.82010366999981
F-73.911598580000046
tp160
a(F40.823964459999807
F-73.911598580000046
tp161
a(F40.827825249999805
F-73.911598580000046
tp162
a(F40.831686039999802
F-73.911598580000046
tp163
a(F40.835546829999799
F-73.911598580000046
tp164
a(F40.839407619999797
F-73.911598580000046
tp165
a(F40.843268409999794
F-73.911598580000046
tp166
a(F40.847129199999792
F-73.911598580000046
tp167
a(F40.850989989999789
F-73.911598580000046
tp168
a(F40.854850779999786
F-73.911598580000046
tp169
a(F40.858711569999784
F-73.911598580000046
tp170
a(F40.862572359999781
F-73.911598580000046
tp171
a(F40.866433149999779
F-73.911598580000046
tp172
a(F40.870293939999776
F-73.911598580000046
tp173
a(F40.874154729999773
F-73.911598580000046
tp174
a(F40.878015519999771
F-73.911598580000046
tp175
a(F40.881876309999768
F-73.911598580000046
tp176
a(F40.885737099999766
F-73.911598580000046
tp177
a(F40.889597889999763
F-73.911598580000046
tp178
a(F40.89345867999976
F-73.911598580000046
tp179
a(F40.897319469999758
F-73.911598580000046
tp180
a(F40.901180259999755
F-73.911598580000046
tp181
a(F40.905041049999753
F-73.911598580000046
tp182
a(F40.90890183999975
F-73.911598580000046
tp183
a(F40.912762629999747
F-73.911598580000046
tp184
a(F40.808521299999818
F-73.905748360000047
tp185
a(F40.812382089999815
F-73.905748360000047
tp186
a(F40.816242879999812
F-73.905748360000047
tp187
a(F40.82010366999981
F-73.905748360000047
tp188
a(F40.823964459999807
F-73.905748360000047
tp189
a(F40.827825249999805
F-73.905748360000047
tp190
a(F40.831686039999802
F-73.905748360000047
tp191
a(F40.835546829999799
F-73.905748360000047
tp192
a(F40.839407619999797
F-73.905748360000047
tp193
a(F40.843268409999794
F-73.905748360000047
tp194
a(F40.847129199999792
F-73.905748360000047
tp195
a(F40.850989989999789
F-73.905748360000047
tp196
a(F40.854850779999786
F-73.905748360000047
tp197
a(F40.858711569999784
F-73.905748360000047
tp198
a(F40.862572359999781
F-73.905748360000047
tp199
a(F40.866433149999779
F-73.905748360000047
tp200
a(F40.870293939999776
F-73.905748360000047
tp201
a(F40.874154729999773
F-73.905748360000047
tp202
a(F40.878015519999771
F-73.905748360000047
tp203
a(F40.881876309999768
F-73.905748360000047
tp204
a(F40.885737099999766
F-73.905748360000047
tp205
a(F40.889597889999763
F-73.905748360000047
tp206
a(F40.89345867999976
F-73.905748360000047
tp207
a(F40.897319469999758
F-73.905748360000047
tp208
a(F40.901180259999755
F-73.905748360000047
tp209
a(F40.905041049999753
F-73.905748360000047
tp210
a(F40.90890183999975
F-73.905748360000047
tp211
a(F40.912762629999747
F-73.905748360000047
tp212
a(F40.808521299999818
F-73.899898140000047
tp213
a(F40.812382089999815
F-73.899898140000047
tp214
a(F40.816242879999812
F-73.899898140000047
tp215
a(F40.82010366999981
F-73.899898140000047
tp216
a(F40.823964459999807
F-73.899898140000047
tp217
a(F40.827825249999805
F-73.899898140000047
tp218
a(F40.831686039999802
F-73.899898140000047
tp219
a(F40.835546829999799
F-73.899898140000047
tp220
a(F40.839407619999797
F-73.899898140000047
tp221
a(F40.843268409999794
F-73.899898140000047
tp222
a(F40.847129199999792
F-73.899898140000047
tp223
a(F40.850989989999789
F-73.899898140000047
tp224
a(F40.854850779999786
F-73.899898140000047
tp225
a(F40.858711569999784
F-73.899898140000047
tp226
a(F40.862572359999781
F-73.899898140000047
tp227
a(F40.866433149999779
F-73.899898140000047
tp228
a(F40.870293939999776
F-73.899898140000047
tp229
a(F40.874154729999773
F-73.899898140000047
tp230
a(F40.878015519999771
F-73.899898140000047
tp231
a(F40.881876309999768
F-73.899898140000047
tp232
a(F40.885737099999766
F-73.899898140000047
tp233
a(F40.889597889999763
F-73.899898140000047
tp234
a(F40.89345867999976
F-73.899898140000047
tp235
a(F40.897319469999758
F-73.899898140000047
tp236
a(F40.901180259999755
F-73.899898140000047
tp237
a(F40.905041049999753
F-73.899898140000047
tp238
a(F40.90890183999975
F-73.899898140000047
tp239
a(F40.808521299999818
F-73.894047920000048
tp240
a(F40.812382089999815
F-73.894047920000048
tp241
a(F40.816242879999812
F-73.894047920000048
tp242
a(F40.82010366999981
F-73.894047920000048
tp243
a(F40.823964459999807
F-73.894047920000048
tp244
a(F40.827825249999805
F-73.894047920000048
tp245
a(F40.831686039999802
F-73.894047920000048
tp246
a(F40.835546829999799
F-73.894047920000048
tp247
a(F40.839407619999797
F-73.894047920000048
tp248
a(F40.843268409999794
F-73.894047920000048
tp249
a(F40.847129199999792
F-73.894047920000048
tp250
a(F40.850989989999789
F-73.894047920000048
tp251
a(F40.854850779999786
F-73.894047920000048
tp252
a(F40.858711569999784
F-73.894047920000048
tp253
a(F40.862572359999781
F-73.894047920000048
tp254
a(F40.866433149999779
F-73.894047920000048
tp255
a(F40.870293939999776
F-73.894047920000048
tp256
a(F40.874154729999773
F-73.894047920000048
tp257
a(F40.878015519999771
F-73.894047920000048
tp258
a(F40.881876309999768
F-73.894047920000048
tp259
a(F40.885737099999766
F-73.894047920000048
tp260
a(F40.889597889999763
F-73.894047920000048
tp261
a(F40.89345867999976
F-73.894047920000048
tp262
a(F40.897319469999758
F-73.894047920000048
tp263
a(F40.901180259999755
F-73.894047920000048
tp264
a(F40.905041049999753
F-73.894047920000048
tp265
a(F40.90890183999975
F-73.894047920000048
tp266
a(F40.808521299999818
F-73.888197700000049
tp267
a(F40.812382089999815
F-73.888197700000049
tp268
a(F40.816242879999812
F-73.888197700000049
tp269
a(F40.82010366999981
F-73.888197700000049
tp270
a(F40.823964459999807
F-73.888197700000049
tp271
a(F40.827825249999805
F-73.888197700000049
tp272
a(F40.831686039999802
F-73.888197700000049
tp273
a(F40.835546829999799
F-73.888197700000049
tp274
a(F40.839407619999797
F-73.888197700000049
tp275
a(F40.843268409999794
F-73.888197700000049
tp276
a(F40.847129199999792
F-73.888197700000049
tp277
a(F40.850989989999789
F-73.888197700000049
tp278
a(F40.854850779999786
F-73.888197700000049
tp279
a(F40.858711569999784
F-73.888197700000049
tp280
a(F40.862572359999781
F-73.888197700000049
tp281
a(F40.866433149999779
F-73.888197700000049
tp282
a(F40.870293939999776
F-73.888197700000049
tp283
a(F40.874154729999773
F-73.888197700000049
tp284
a(F40.878015519999771
F-73.888197700000049
tp285
a(F40.881876309999768
F-73.888197700000049
tp286
a(F40.885737099999766
F-73.888197700000049
tp287
a(F40.889597889999763
F-73.888197700000049
tp288
a(F40.89345867999976
F-73.888197700000049
tp289
a(F40.897319469999758
F-73.888197700000049
tp290
a(F40.901180259999755
F-73.888197700000049
tp291
a(F40.905041049999753
F-73.888197700000049
tp292
a(F40.808521299999818
F-73.88234748000005
tp293
a(F40.812382089999815
F-73.88234748000005
tp294
a(F40.816242879999812
F-73.88234748000005
tp295
a(F40.82010366999981
F-73.88234748000005
tp296
a(F40.823964459999807
F-73.88234748000005
tp297
a(F40.827825249999805
F-73.88234748000005
tp298
a(F40.831686039999802
F-73.88234748000005
tp299
a(F40.835546829999799
F-73.88234748000005
tp300
a(F40.839407619999797
F-73.88234748000005
tp301
a(F40.843268409999794
F-73.88234748000005
tp302
a(F40.847129199999792
F-73.88234748000005
tp303
a(F40.850989989999789
F-73.88234748000005
tp304
a(F40.854850779999786
F-73.88234748000005
tp305
a(F40.858711569999784
F-73.88234748000005
tp306
a(F40.862572359999781
F-73.88234748000005
tp307
a(F40.866433149999779
F-73.88234748000005
tp308
a(F40.870293939999776
F-73.88234748000005
tp309
a(F40.874154729999773
F-73.88234748000005
tp310
a(F40.878015519999771
F-73.88234748000005
tp311
a(F40.881876309999768
F-73.88234748000005
tp312
a(F40.885737099999766
F-73.88234748000005
tp313
a(F40.889597889999763
F-73.88234748000005
tp314
a(F40.89345867999976
F-73.88234748000005
tp315
a(F40.897319469999758
F-73.88234748000005
tp316
a(F40.901180259999755
F-73.88234748000005
tp317
a(F40.905041049999753
F-73.88234748000005
tp318
a(F40.808521299999818
F-73.87649726000005
tp319
a(F40.812382089999815
F-73.87649726000005
tp320
a(F40.816242879999812
F-73.87649726000005
tp321
a(F40.82010366999981
F-73.87649726000005
tp322
a(F40.823964459999807
F-73.87649726000005
tp323
a(F40.827825249999805
F-73.87649726000005
tp324
a(F40.831686039999802
F-73.87649726000005
tp325
a(F40.835546829999799
F-73.87649726000005
tp326
a(F40.839407619999797
F-73.87649726000005
tp327
a(F40.843268409999794
F-73.87649726000005
tp328
a(F40.847129199999792
F-73.87649726000005
tp329
a(F40.850989989999789
F-73.87649726000005
tp330
a(F40.854850779999786
F-73.87649726000005
tp331
a(F40.858711569999784
F-73.87649726000005
tp332
a(F40.862572359999781
F-73.87649726000005
tp333
a(F40.866433149999779
F-73.87649726000005
tp334
a(F40.870293939999776
F-73.87649726000005
tp335
a(F40.874154729999773
F-73.87649726000005
tp336
a(F40.878015519999771
F-73.87649726000005
tp337
a(F40.881876309999768
F-73.87649726000005
tp338
a(F40.885737099999766
F-73.87649726000005
tp339
a(F40.889597889999763
F-73.87649726000005
tp340
a(F40.89345867999976
F-73.87649726000005
tp341
a(F40.897319469999758
F-73.87649726000005
tp342
a(F40.901180259999755
F-73.87649726000005
tp343
a(F40.905041049999753
F-73.87649726000005
tp344
a(F40.808521299999818
F-73.870647040000051
tp345
a(F40.812382089999815
F-73.870647040000051
tp346
a(F40.816242879999812
F-73.870647040000051
tp347
a(F40.82010366999981
F-73.870647040000051
tp348
a(F40.823964459999807
F-73.870647040000051
tp349
a(F40.827825249999805
F-73.870647040000051
tp350
a(F40.831686039999802
F-73.870647040000051
tp351
a(F40.835546829999799
F-73.870647040000051
tp352
a(F40.839407619999797
F-73.870647040000051
tp353
a(F40.843268409999794
F-73.870647040000051
tp354
a(F40.847129199999792
F-73.870647040000051
tp355
a(F40.850989989999789
F-73.870647040000051
tp356
a(F40.854850779999786
F-73.870647040000051
tp357
a(F40.858711569999784
F-73.870647040000051
tp358
a(F40.862572359999781
F-73.870647040000051
tp359
a(F40.866433149999779
F-73.870647040000051
tp360
a(F40.870293939999776
F-73.870647040000051
tp361
a(F40.874154729999773
F-73.870647040000051
tp362
a(F40.878015519999771
F-73.870647040000051
tp363
a(F40.881876309999768
F-73.870647040000051
tp364
a(F40.885737099999766
F-73.870647040000051
tp365
a(F40.889597889999763
F-73.870647040000051
tp366
a(F40.89345867999976
F-73.870647040000051
tp367
a(F40.897319469999758
F-73.870647040000051
tp368
a(F40.901180259999755
F-73.870647040000051
tp369
a(F40.808521299999818
F-73.864796820000052
tp370
a(F40.812382089999815
F-73.864796820000052
tp371
a(F40.816242879999812
F-73.864796820000052
tp372
a(F40.82010366999981
F-73.864796820000052
tp373
a(F40.823964459999807
F-73.864796820000052
tp374
a(F40.827825249999805
F-73.864796820000052
tp375
a(F40.831686039999802
F-73.864796820000052
tp376
a(F40.835546829999799
F-73.864796820000052
tp377
a(F40.839407619999797
F-73.864796820000052
tp378
a(F40.843268409999794
F-73.864796820000052
tp379
a(F40.847129199999792
F-73.864796820000052
tp380
a(F40.850989989999789
F-73.864796820000052
tp381
a(F40.854850779999786
F-73.864796820000052
tp382
a(F40.858711569999784
F-73.864796820000052
tp383
a(F40.862572359999781
F-73.864796820000052
tp384
a(F40.866433149999779
F-73.864796820000052
tp385
a(F40.870293939999776
F-73.864796820000052
tp386
a(F40.874154729999773
F-73.864796820000052
tp387
a(F40.878015519999771
F-73.864796820000052
tp388
a(F40.881876309999768
F-73.864796820000052
tp389
a(F40.885737099999766
F-73.864796820000052
tp390
a(F40.889597889999763
F-73.864796820000052
tp391
a(F40.89345867999976
F-73.864796820000052
tp392
a(F40.897319469999758
F-73.864796820000052
tp393
a(F40.901180259999755
F-73.864796820000052
tp394
a(F40.808521299999818
F-73.858946600000053
tp395
a(F40.812382089999815
F-73.858946600000053
tp396
a(F40.816242879999812
F-73.858946600000053
tp397
a(F40.82010366999981
F-73.858946600000053
tp398
a(F40.823964459999807
F-73.858946600000053
tp399
a(F40.827825249999805
F-73.858946600000053
tp400
a(F40.831686039999802
F-73.858946600000053
tp401
a(F40.835546829999799
F-73.858946600000053
tp402
a(F40.839407619999797
F-73.858946600000053
tp403
a(F40.843268409999794
F-73.858946600000053
tp404
a(F40.847129199999792
F-73.858946600000053
tp405
a(F40.850989989999789
F-73.858946600000053
tp406
a(F40.854850779999786
F-73.858946600000053
tp407
a(F40.858711569999784
F-73.858946600000053
tp408
a(F40.862572359999781
F-73.858946600000053
tp409
a(F40.866433149999779
F-73.858946600000053
tp410
a(F40.870293939999776
F-73.858946600000053
tp411
a(F40.874154729999773
F-73.858946600000053
tp412
a(F40.878015519999771
F-73.858946600000053
tp413
a(F40.881876309999768
F-73.858946600000053
tp414
a(F40.885737099999766
F-73.858946600000053
tp415
a(F40.889597889999763
F-73.858946600000053
tp416
a(F40.89345867999976
F-73.858946600000053
tp417
a(F40.897319469999758
F-73.858946600000053
tp418
a(F40.901180259999755
F-73.858946600000053
tp419
a(F40.808521299999818
F-73.853096380000054
tp420
a(F40.812382089999815
F-73.853096380000054
tp421
a(F40.816242879999812
F-73.853096380000054
tp422
a(F40.82010366999981
F-73.853096380000054
tp423
a(F40.823964459999807
F-73.853096380000054
tp424
a(F40.827825249999805
F-73.853096380000054
tp425
a(F40.831686039999802
F-73.853096380000054
tp426
a(F40.835546829999799
F-73.853096380000054
tp427
a(F40.839407619999797
F-73.853096380000054
tp428
a(F40.843268409999794
F-73.853096380000054
tp429
a(F40.847129199999792
F-73.853096380000054
tp430
a(F40.850989989999789
F-73.853096380000054
tp431
a(F40.854850779999786
F-73.853096380000054
tp432
a(F40.858711569999784
F-73.853096380000054
tp433
a(F40.862572359999781
F-73.853096380000054
tp434
a(F40.866433149999779
F-73.853096380000054
tp435
a(F40.870293939999776
F-73.853096380000054
tp436
a(F40.874154729999773
F-73.853096380000054
tp437
a(F40.878015519999771
F-73.853096380000054
tp438
a(F40.881876309999768
F-73.853096380000054
tp439
a(F40.885737099999766
F-73.853096380000054
tp440
a(F40.889597889999763
F-73.853096380000054
tp441
a(F40.89345867999976
F-73.853096380000054
tp442
a(F40.897319469999758
F-73.853096380000054
tp443
a(F40.901180259999755
F-73.853096380000054
tp444
a(F40.905041049999753
F-73.853096380000054
tp445
a(F40.90890183999975
F-73.853096380000054
tp446
a(F40.808521299999818
F-73.847246160000054
tp447
a(F40.812382089999815
F-73.847246160000054
tp448
a(F40.816242879999812
F-73.847246160000054
tp449
a(F40.82010366999981
F-73.847246160000054
tp450
a(F40.823964459999807
F-73.847246160000054
tp451
a(F40.827825249999805
F-73.847246160000054
tp452
a(F40.831686039999802
F-73.847246160000054
tp453
a(F40.835546829999799
F-73.847246160000054
tp454
a(F40.839407619999797
F-73.847246160000054
tp455
a(F40.843268409999794
F-73.847246160000054
tp456
a(F40.847129199999792
F-73.847246160000054
tp457
a(F40.850989989999789
F-73.847246160000054
tp458
a(F40.854850779999786
F-73.847246160000054
tp459
a(F40.858711569999784
F-73.847246160000054
tp460
a(F40.862572359999781
F-73.847246160000054
tp461
a(F40.866433149999779
F-73.847246160000054
tp462
a(F40.870293939999776
F-73.847246160000054
tp463
a(F40.874154729999773
F-73.847246160000054
tp464
a(F40.878015519999771
F-73.847246160000054
tp465
a(F40.881876309999768
F-73.847246160000054
tp466
a(F40.885737099999766
F-73.847246160000054
tp467
a(F40.889597889999763
F-73.847246160000054
tp468
a(F40.89345867999976
F-73.847246160000054
tp469
a(F40.897319469999758
F-73.847246160000054
tp470
a(F40.901180259999755
F-73.847246160000054
tp471
a(F40.905041049999753
F-73.847246160000054
tp472
a(F40.808521299999818
F-73.841395940000055
tp473
a(F40.812382089999815
F-73.841395940000055
tp474
a(F40.816242879999812
F-73.841395940000055
tp475
a(F40.82010366999981
F-73.841395940000055
tp476
a(F40.823964459999807
F-73.841395940000055
tp477
a(F40.827825249999805
F-73.841395940000055
tp478
a(F40.831686039999802
F-73.841395940000055
tp479
a(F40.835546829999799
F-73.841395940000055
tp480
a(F40.839407619999797
F-73.841395940000055
tp481
a(F40.843268409999794
F-73.841395940000055
tp482
a(F40.847129199999792
F-73.841395940000055
tp483
a(F40.850989989999789
F-73.841395940000055
tp484
a(F40.854850779999786
F-73.841395940000055
tp485
a(F40.858711569999784
F-73.841395940000055
tp486
a(F40.862572359999781
F-73.841395940000055
tp487
a(F40.866433149999779
F-73.841395940000055
tp488
a(F40.870293939999776
F-73.841395940000055
tp489
a(F40.874154729999773
F-73.841395940000055
tp490
a(F40.878015519999771
F-73.841395940000055
tp491
a(F40.881876309999768
F-73.841395940000055
tp492
a(F40.885737099999766
F-73.841395940000055
tp493
a(F40.889597889999763
F-73.841395940000055
tp494
a(F40.89345867999976
F-73.841395940000055
tp495
a(F40.897319469999758
F-73.841395940000055
tp496
a(F40.901180259999755
F-73.841395940000055
tp497
a(F40.808521299999818
F-73.835545720000056
tp498
a(F40.812382089999815
F-73.835545720000056
tp499
a(F40.816242879999812
F-73.835545720000056
tp500
a(F40.82010366999981
F-73.835545720000056
tp501
a(F40.823964459999807
F-73.835545720000056
tp502
a(F40.827825249999805
F-73.835545720000056
tp503
a(F40.831686039999802
F-73.835545720000056
tp504
a(F40.835546829999799
F-73.835545720000056
tp505
a(F40.839407619999797
F-73.835545720000056
tp506
a(F40.843268409999794
F-73.835545720000056
tp507
a(F40.847129199999792
F-73.835545720000056
tp508
a(F40.850989989999789
F-73.835545720000056
tp509
a(F40.854850779999786
F-73.835545720000056
tp510
a(F40.858711569999784
F-73.835545720000056
tp511
a(F40.862572359999781
F-73.835545720000056
tp512
a(F40.866433149999779
F-73.835545720000056
tp513
a(F40.870293939999776
F-73.835545720000056
tp514
a(F40.874154729999773
F-73.835545720000056
tp515
a(F40.878015519999771
F-73.835545720000056
tp516
a(F40.881876309999768
F-73.835545720000056
tp517
a(F40.885737099999766
F-73.835545720000056
tp518
a(F40.889597889999763
F-73.835545720000056
tp519
a(F40.808521299999818
F-73.829695500000057
tp520
a(F40.812382089999815
F-73.829695500000057
tp521
a(F40.816242879999812
F-73.829695500000057
tp522
a(F40.82010366999981
F-73.829695500000057
tp523
a(F40.823964459999807
F-73.829695500000057
tp524
a(F40.827825249999805
F-73.829695500000057
tp525
a(F40.831686039999802
F-73.829695500000057
tp526
a(F40.835546829999799
F-73.829695500000057
tp527
a(F40.839407619999797
F-73.829695500000057
tp528
a(F40.843268409999794
F-73.829695500000057
tp529
a(F40.847129199999792
F-73.829695500000057
tp530
a(F40.850989989999789
F-73.829695500000057
tp531
a(F40.854850779999786
F-73.829695500000057
tp532
a(F40.858711569999784
F-73.829695500000057
tp533
a(F40.862572359999781
F-73.829695500000057
tp534
a(F40.866433149999779
F-73.829695500000057
tp535
a(F40.870293939999776
F-73.829695500000057
tp536
a(F40.874154729999773
F-73.829695500000057
tp537
a(F40.878015519999771
F-73.829695500000057
tp538
a(F40.881876309999768
F-73.829695500000057
tp539
a(F40.885737099999766
F-73.829695500000057
tp540
a(F40.889597889999763
F-73.829695500000057
tp541
a(F40.808521299999818
F-73.823845280000057
tp542
a(F40.812382089999815
F-73.823845280000057
tp543
a(F40.816242879999812
F-73.823845280000057
tp544
a(F40.82010366999981
F-73.823845280000057
tp545
a(F40.823964459999807
F-73.823845280000057
tp546
a(F40.827825249999805
F-73.823845280000057
tp547
a(F40.831686039999802
F-73.823845280000057
tp548
a(F40.835546829999799
F-73.823845280000057
tp549
a(F40.839407619999797
F-73.823845280000057
tp550
a(F40.843268409999794
F-73.823845280000057
tp551
a(F40.847129199999792
F-73.823845280000057
tp552
a(F40.850989989999789
F-73.823845280000057
tp553
a(F40.854850779999786
F-73.823845280000057
tp554
a(F40.858711569999784
F-73.823845280000057
tp555
a(F40.862572359999781
F-73.823845280000057
tp556
a(F40.866433149999779
F-73.823845280000057
tp557
a(F40.870293939999776
F-73.823845280000057
tp558
a(F40.874154729999773
F-73.823845280000057
tp559
a(F40.878015519999771
F-73.823845280000057
tp560
a(F40.881876309999768
F-73.823845280000057
tp561
a(F40.885737099999766
F-73.823845280000057
tp562
a(F40.889597889999763
F-73.823845280000057
tp563
a(F40.808521299999818
F-73.817995060000058
tp564
a(F40.812382089999815
F-73.817995060000058
tp565
a(F40.816242879999812
F-73.817995060000058
tp566
a(F40.82010366999981
F-73.817995060000058
tp567
a(F40.823964459999807
F-73.817995060000058
tp568
a(F40.827825249999805
F-73.817995060000058
tp569
a(F40.831686039999802
F-73.817995060000058
tp570
a(F40.835546829999799
F-73.817995060000058
tp571
a(F40.839407619999797
F-73.817995060000058
tp572
a(F40.843268409999794
F-73.817995060000058
tp573
a(F40.847129199999792
F-73.817995060000058
tp574
a(F40.850989989999789
F-73.817995060000058
tp575
a(F40.854850779999786
F-73.817995060000058
tp576
a(F40.858711569999784
F-73.817995060000058
tp577
a(F40.862572359999781
F-73.817995060000058
tp578
a(F40.866433149999779
F-73.817995060000058
tp579
a(F40.870293939999776
F-73.817995060000058
tp580
a(F40.874154729999773
F-73.817995060000058
tp581
a(F40.878015519999771
F-73.817995060000058
tp582
a(F40.881876309999768
F-73.817995060000058
tp583
a(F40.885737099999766
F-73.817995060000058
tp584
a(F40.889597889999763
F-73.817995060000058
tp585
a(F40.808521299999818
F-73.812144840000059
tp586
a(F40.812382089999815
F-73.812144840000059
tp587
a(F40.816242879999812
F-73.812144840000059
tp588
a(F40.82010366999981
F-73.812144840000059
tp589
a(F40.823964459999807
F-73.812144840000059
tp590
a(F40.827825249999805
F-73.812144840000059
tp591
a(F40.831686039999802
F-73.812144840000059
tp592
a(F40.835546829999799
F-73.812144840000059
tp593
a(F40.839407619999797
F-73.812144840000059
tp594
a(F40.843268409999794
F-73.812144840000059
tp595
a(F40.847129199999792
F-73.812144840000059
tp596
a(F40.850989989999789
F-73.812144840000059
tp597
a(F40.854850779999786
F-73.812144840000059
tp598
a(F40.858711569999784
F-73.812144840000059
tp599
a(F40.862572359999781
F-73.812144840000059
tp600
a(F40.866433149999779
F-73.812144840000059
tp601
a(F40.870293939999776
F-73.812144840000059
tp602
a(F40.874154729999773
F-73.812144840000059
tp603
a(F40.878015519999771
F-73.812144840000059
tp604
a(F40.881876309999768
F-73.812144840000059
tp605
a(F40.885737099999766
F-73.812144840000059
tp606
a(F40.808521299999818
F-73.80629462000006
tp607
a(F40.812382089999815
F-73.80629462000006
tp608
a(F40.816242879999812
F-73.80629462000006
tp609
a(F40.82010366999981
F-73.80629462000006
tp610
a(F40.823964459999807
F-73.80629462000006
tp611
a(F40.827825249999805
F-73.80629462000006
tp612
a(F40.831686039999802
F-73.80629462000006
tp613
a(F40.835546829999799
F-73.80629462000006
tp614
a(F40.839407619999797
F-73.80629462000006
tp615
a(F40.843268409999794
F-73.80629462000006
tp616
a(F40.847129199999792
F-73.80629462000006
tp617
a(F40.850989989999789
F-73.80629462000006
tp618
a(F40.854850779999786
F-73.80629462000006
tp619
a(F40.858711569999784
F-73.80629462000006
tp620
a(F40.862572359999781
F-73.80629462000006
tp621
a(F40.866433149999779
F-73.80629462000006
tp622
a(F40.870293939999776
F-73.80629462000006
tp623
a(F40.874154729999773
F-73.80629462000006
tp624
a(F40.878015519999771
F-73.80629462000006
tp625
a(F40.881876309999768
F-73.80629462000006
tp626
a(F40.885737099999766
F-73.80629462000006
tp627
a(F40.808521299999818
F-73.80044440000006
tp628
a(F40.812382089999815
F-73.80044440000006
tp629
a(F40.816242879999812
F-73.80044440000006
tp630
a(F40.82010366999981
F-73.80044440000006
tp631
a(F40.823964459999807
F-73.80044440000006
tp632
a(F40.827825249999805
F-73.80044440000006
tp633
a(F40.831686039999802
F-73.80044440000006
tp634
a(F40.835546829999799
F-73.80044440000006
tp635
a(F40.839407619999797
F-73.80044440000006
tp636
a(F40.843268409999794
F-73.80044440000006
tp637
a(F40.847129199999792
F-73.80044440000006
tp638
a(F40.850989989999789
F-73.80044440000006
tp639
a(F40.854850779999786
F-73.80044440000006
tp640
a(F40.858711569999784
F-73.80044440000006
tp641
a(F40.862572359999781
F-73.80044440000006
tp642
a(F40.866433149999779
F-73.80044440000006
tp643
a(F40.870293939999776
F-73.80044440000006
tp644
a(F40.874154729999773
F-73.80044440000006
tp645
a(F40.878015519999771
F-73.80044440000006
tp646
a(F40.881876309999768
F-73.80044440000006
tp647
a(F40.808521299999818
F-73.794594180000061
tp648
a(F40.812382089999815
F-73.794594180000061
tp649
a(F40.816242879999812
F-73.794594180000061
tp650
a(F40.82010366999981
F-73.794594180000061
tp651
a(F40.823964459999807
F-73.794594180000061
tp652
a(F40.827825249999805
F-73.794594180000061
tp653
a(F40.831686039999802
F-73.794594180000061
tp654
a(F40.835546829999799
F-73.794594180000061
tp655
a(F40.839407619999797
F-73.794594180000061
tp656
a(F40.843268409999794
F-73.794594180000061
tp657
a(F40.847129199999792
F-73.794594180000061
tp658
a(F40.850989989999789
F-73.794594180000061
tp659
a(F40.854850779999786
F-73.794594180000061
tp660
a(F40.858711569999784
F-73.794594180000061
tp661
a(F40.862572359999781
F-73.794594180000061
tp662
a(F40.866433149999779
F-73.794594180000061
tp663
a(F40.870293939999776
F-73.794594180000061
tp664
a(F40.874154729999773
F-73.794594180000061
tp665
a(F40.878015519999771
F-73.794594180000061
tp666
a(F40.881876309999768
F-73.794594180000061
tp667
a(F40.808521299999818
F-73.788743960000062
tp668
a(F40.812382089999815
F-73.788743960000062
tp669
a(F40.816242879999812
F-73.788743960000062
tp670
a(F40.82010366999981
F-73.788743960000062
tp671
a(F40.823964459999807
F-73.788743960000062
tp672
a(F40.827825249999805
F-73.788743960000062
tp673
a(F40.831686039999802
F-73.788743960000062
tp674
a(F40.835546829999799
F-73.788743960000062
tp675
a(F40.839407619999797
F-73.788743960000062
tp676
a(F40.843268409999794
F-73.788743960000062
tp677
a(F40.847129199999792
F-73.788743960000062
tp678
a(F40.850989989999789
F-73.788743960000062
tp679
a(F40.854850779999786
F-73.788743960000062
tp680
a(F40.858711569999784
F-73.788743960000062
tp681
a(F40.862572359999781
F-73.788743960000062
tp682
a(F40.866433149999779
F-73.788743960000062
tp683
a(F40.870293939999776
F-73.788743960000062
tp684
a(F40.874154729999773
F-73.788743960000062
tp685
a(F40.878015519999771
F-73.788743960000062
tp686
a(F40.881876309999768
F-73.788743960000062
tp687
a(F40.808521299999818
F-73.782893740000063
tp688
a(F40.812382089999815
F-73.782893740000063
tp689
a(F40.816242879999812
F-73.782893740000063
tp690
a(F40.82010366999981
F-73.782893740000063
tp691
a(F40.823964459999807
F-73.782893740000063
tp692
a(F40.827825249999805
F-73.782893740000063
tp693
a(F40.831686039999802
F-73.782893740000063
tp694
a(F40.835546829999799
F-73.782893740000063
tp695
a(F40.839407619999797
F-73.782893740000063
tp696
a(F40.843268409999794
F-73.782893740000063
tp697
a(F40.847129199999792
F-73.782893740000063
tp698
a(F40.850989989999789
F-73.782893740000063
tp699
a(F40.854850779999786
F-73.782893740000063
tp700
a(F40.858711569999784
F-73.782893740000063
tp701
a(F40.862572359999781
F-73.782893740000063
tp702
a(F40.866433149999779
F-73.782893740000063
tp703
a(F40.870293939999776
F-73.782893740000063
tp704
a(F40.874154729999773
F-73.782893740000063
tp705
a(F40.878015519999771
F-73.782893740000063
tp706
a(F40.808521299999818
F-73.777043520000063
tp707
a(F40.831686039999802
F-73.777043520000063
tp708
a(F40.835546829999799
F-73.777043520000063
tp709
a(F40.839407619999797
F-73.777043520000063
tp710
a(F40.843268409999794
F-73.777043520000063
tp711
a(F40.847129199999792
F-73.777043520000063
tp712
a(F40.850989989999789
F-73.777043520000063
tp713
a(F40.854850779999786
F-73.777043520000063
tp714
a(F40.858711569999784
F-73.777043520000063
tp715
a(F40.862572359999781
F-73.777043520000063
tp716
a(F40.866433149999779
F-73.777043520000063
tp717
a(F40.870293939999776
F-73.777043520000063
tp718
a(F40.874154729999773
F-73.777043520000063
tp719
a(F40.878015519999771
F-73.777043520000063
tp720
a(F40.835546829999799
F-73.771193300000064
tp721
a(F40.839407619999797
F-73.771193300000064
tp722
a(F40.843268409999794
F-73.771193300000064
tp723
a(F40.847129199999792
F-73.771193300000064
tp724
a(F40.850989989999789
F-73.771193300000064
tp725
a(F40.854850779999786
F-73.771193300000064
tp726
a(F40.858711569999784
F-73.771193300000064
tp727
a(F40.862572359999781
F-73.771193300000064
tp728
a(F40.866433149999779
F-73.771193300000064
tp729
a(F40.870293939999776
F-73.771193300000064
tp730
a(F40.874154729999773
F-73.771193300000064
tp731
a(F40.839407619999797
F-73.765343080000065
tp732
a(F40.843268409999794
F-73.765343080000065
tp733
a(F40.847129199999792
F-73.765343080000065
tp734
a(F40.850989989999789
F-73.765343080000065
tp735
a(F40.854850779999786
F-73.765343080000065
tp736
a(F40.858711569999784
F-73.765343080000065
tp737
a(F40.862572359999781
F-73.765343080000065
tp738
a(F40.866433149999779
F-73.765343080000065
tp739
a(F40.870293939999776
F-73.765343080000065
tp740
a(F40.874154729999773
F-73.765343080000065
tp741
a(F40.847129199999792
F-73.759492860000066
tp742
a(F40.850989989999789
F-73.759492860000066
tp743
a(F40.854850779999786
F-73.759492860000066
tp744
a(F40.858711569999784
F-73.759492860000066
tp745
a(F40.862572359999781
F-73.759492860000066
tp746
a(F40.866433149999779
F-73.759492860000066
tp747
a(F40.870293939999776
F-73.759492860000066
tp748
a(F40.874154729999773
F-73.759492860000066
tp749
a(F40.858711569999784
F-73.753642640000066
tp750
a(F40.862572359999781
F-73.753642640000066
tp751
a(F40.866433149999779
F-73.753642640000066
tp752
a(F40.870293939999776
F-73.753642640000066
tp753
a.