(lp1
(F40.673393649999909
F-74.040303420000029
tp2
a(F40.700419179999891
F-74.040303420000029
tp3
a(F40.673393649999909
F-74.03445320000003
tp4
a(F40.677254439999906
F-74.03445320000003
tp5
a(F40.681115229999904
F-74.03445320000003
tp6
a(F40.684976019999901
F-74.03445320000003
tp7
a(F40.673393649999909
F-74.028602980000031
tp8
a(F40.677254439999906
F-74.028602980000031
tp9
a(F40.681115229999904
F-74.028602980000031
tp10
a(F40.684976019999901
F-74.028602980000031
tp11
a(F40.688836809999898
F-74.028602980000031
tp12
a(F40.692697599999896
F-74.028602980000031
tp13
a(F40.673393649999909
F-74.022752760000031
tp14
a(F40.677254439999906
F-74.022752760000031
tp15
a(F40.681115229999904
F-74.022752760000031
tp16
a(F40.684976019999901
F-74.022752760000031
tp17
a(F40.688836809999898
F-74.022752760000031
tp18
a(F40.692697599999896
F-74.022752760000031
tp19
a(F40.696558389999893
F-74.022752760000031
tp20
a(F40.700419179999891
F-74.022752760000031
tp21
a(F40.704279969999888
F-74.022752760000031
tp22
a(F40.708140759999885
F-74.022752760000031
tp23
a(F40.712001549999883
F-74.022752760000031
tp24
a(F40.71586233999988
F-74.022752760000031
tp25
a(F40.673393649999909
F-74.016902540000032
tp26
a(F40.677254439999906
F-74.016902540000032
tp27
a(F40.681115229999904
F-74.016902540000032
tp28
a(F40.684976019999901
F-74.016902540000032
tp29
a(F40.688836809999898
F-74.016902540000032
tp30
a(F40.692697599999896
F-74.016902540000032
tp31
a(F40.696558389999893
F-74.016902540000032
tp32
a(F40.700419179999891
F-74.016902540000032
tp33
a(F40.704279969999888
F-74.016902540000032
tp34
a(F40.708140759999885
F-74.016902540000032
tp35
a(F40.712001549999883
F-74.016902540000032
tp36
a(F40.71586233999988
F-74.016902540000032
tp37
a(F40.719723129999878
F-74.016902540000032
tp38
a(F40.723583919999875
F-74.016902540000032
tp39
a(F40.727444709999872
F-74.016902540000032
tp40
a(F40.73130549999987
F-74.016902540000032
tp41
a(F40.735166289999867
F-74.016902540000032
tp42
a(F40.739027079999865
F-74.016902540000032
tp43
a(F40.742887869999862
F-74.016902540000032
tp44
a(F40.673393649999909
F-74.011052320000033
tp45
a(F40.677254439999906
F-74.011052320000033
tp46
a(F40.681115229999904
F-74.011052320000033
tp47
a(F40.684976019999901
F-74.011052320000033
tp48
a(F40.688836809999898
F-74.011052320000033
tp49
a(F40.692697599999896
F-74.011052320000033
tp50
a(F40.696558389999893
F-74.011052320000033
tp51
a(F40.700419179999891
F-74.011052320000033
tp52
a(F40.704279969999888
F-74.011052320000033
tp53
a(F40.708140759999885
F-74.011052320000033
tp54
a(F40.712001549999883
F-74.011052320000033
tp55
a(F40.71586233999988
F-74.011052320000033
tp56
a(F40.719723129999878
F-74.011052320000033
tp57
a(F40.723583919999875
F-74.011052320000033
tp58
a(F40.727444709999872
F-74.011052320000033
tp59
a(F40.73130549999987
F-74.011052320000033
tp60
a(F40.735166289999867
F-74.011052320000033
tp61
a(F40.739027079999865
F-74.011052320000033
tp62
a(F40.742887869999862
F-74.011052320000033
tp63
a(F40.746748659999859
F-74.011052320000033
tp64
a(F40.750609449999857
F-74.011052320000033
tp65
a(F40.754470239999854
F-74.011052320000033
tp66
a(F40.758331029999852
F-74.011052320000033
tp67
a(F40.673393649999909
F-74.005202100000034
tp68
a(F40.677254439999906
F-74.005202100000034
tp69
a(F40.681115229999904
F-74.005202100000034
tp70
a(F40.684976019999901
F-74.005202100000034
tp71
a(F40.688836809999898
F-74.005202100000034
tp72
a(F40.692697599999896
F-74.005202100000034
tp73
a(F40.696558389999893
F-74.005202100000034
tp74
a(F40.700419179999891
F-74.005202100000034
tp75
a(F40.704279969999888
F-74.005202100000034
tp76
a(F40.708140759999885
F-74.005202100000034
tp77
a(F40.712001549999883
F-74.005202100000034
tp78
a(F40.71586233999988
F-74.005202100000034
tp79
a(F40.719723129999878
F-74.005202100000034
tp80
a(F40.723583919999875
F-74.005202100000034
tp81
a(F40.727444709999872
F-74.005202100000034
tp82
a(F40.73130549999987
F-74.005202100000034
tp83
a(F40.735166289999867
F-74.005202100000034
tp84
a(F40.739027079999865
F-74.005202100000034
tp85
a(F40.742887869999862
F-74.005202100000034
tp86
a(F40.746748659999859
F-74.005202100000034
tp87
a(F40.750609449999857
F-74.005202100000034
tp88
a(F40.754470239999854
F-74.005202100000034
tp89
a(F40.758331029999852
F-74.005202100000034
tp90
a(F40.762191819999849
F-74.005202100000034
tp91
a(F40.766052609999846
F-74.005202100000034
tp92
a(F40.673393649999909
F-73.999351880000034
tp93
a(F40.677254439999906
F-73.999351880000034
tp94
a(F40.681115229999904
F-73.999351880000034
tp95
a(F40.684976019999901
F-73.999351880000034
tp96
a(F40.688836809999898
F-73.999351880000034
tp97
a(F40.692697599999896
F-73.999351880000034
tp98
a(F40.696558389999893
F-73.999351880000034
tp99
a(F40.700419179999891
F-73.999351880000034
tp100
a(F40.704279969999888
F-73.999351880000034
tp101
a(F40.708140759999885
F-73.999351880000034
tp102
a(F40.712001549999883
F-73.999351880000034
tp103
a(F40.71586233999988
F-73.999351880000034
tp104
a(F40.719723129999878
F-73.999351880000034
tp105
a(F40.723583919999875
F-73.999351880000034
tp106
a(F40.727444709999872
F-73.999351880000034
tp107
a(F40.73130549999987
F-73.999351880000034
tp108
a(F40.735166289999867
F-73.999351880000034
tp109
a(F40.739027079999865
F-73.999351880000034
tp110
a(F40.742887869999862
F-73.999351880000034
tp111
a(F40.746748659999859
F-73.999351880000034
tp112
a(F40.750609449999857
F-73.999351880000034
tp113
a(F40.754470239999854
F-73.999351880000034
tp114
a(F40.758331029999852
F-73.999351880000034
tp115
a(F40.762191819999849
F-73.999351880000034
tp116
a(F40.766052609999846
F-73.999351880000034
tp117
a(F40.769913399999844
F-73.999351880000034
tp118
a(F40.773774189999841
F-73.999351880000034
tp119
a(F40.673393649999909
F-73.993501660000035
tp120
a(F40.677254439999906
F-73.993501660000035
tp121
a(F40.681115229999904
F-73.993501660000035
tp122
a(F40.684976019999901
F-73.993501660000035
tp123
a(F40.688836809999898
F-73.993501660000035
tp124
a(F40.692697599999896
F-73.993501660000035
tp125
a(F40.696558389999893
F-73.993501660000035
tp126
a(F40.700419179999891
F-73.993501660000035
tp127
a(F40.704279969999888
F-73.993501660000035
tp128
a(F40.708140759999885
F-73.993501660000035
tp129
a(F40.712001549999883
F-73.993501660000035
tp130
a(F40.71586233999988
F-73.993501660000035
tp131
a(F40.719723129999878
F-73.993501660000035
tp132
a(F40.723583919999875
F-73.993501660000035
tp133
a(F40.727444709999872
F-73.993501660000035
tp134
a(F40.73130549999987
F-73.993501660000035
tp135
a(F40.735166289999867
F-73.993501660000035
tp136
a(F40.739027079999865
F-73.993501660000035
tp137
a(F40.742887869999862
F-73.993501660000035
tp138
a(F40.746748659999859
F-73.993501660000035
tp139
a(F40.750609449999857
F-73.993501660000035
tp140
a(F40.754470239999854
F-73.993501660000035
tp141
a(F40.758331029999852
F-73.993501660000035
tp142
a(F40.762191819999849
F-73.993501660000035
tp143
a(F40.766052609999846
F-73.993501660000035
tp144
a(F40.769913399999844
F-73.993501660000035
tp145
a(F40.773774189999841
F-73.993501660000035
tp146
a(F40.777634979999839
F-73.993501660000035
tp147
a(F40.781495769999836
F-73.993501660000035
tp148
a(F40.785356559999833
F-73.993501660000035
tp149
a(F40.673393649999909
F-73.987651440000036
tp150
a(F40.677254439999906
F-73.987651440000036
tp151
a(F40.681115229999904
F-73.987651440000036
tp152
a(F40.684976019999901
F-73.987651440000036
tp153
a(F40.688836809999898
F-73.987651440000036
tp154
a(F40.692697599999896
F-73.987651440000036
tp155
a(F40.696558389999893
F-73.987651440000036
tp156
a(F40.700419179999891
F-73.987651440000036
tp157
a(F40.704279969999888
F-73.987651440000036
tp158
a(F40.708140759999885
F-73.987651440000036
tp159
a(F40.712001549999883
F-73.987651440000036
tp160
a(F40.71586233999988
F-73.987651440000036
tp161
a(F40.719723129999878
F-73.987651440000036
tp162
a(F40.723583919999875
F-73.987651440000036
tp163
a(F40.727444709999872
F-73.987651440000036
tp164
a(F40.73130549999987
F-73.987651440000036
tp165
a(F40.735166289999867
F-73.987651440000036
tp166
a(F40.739027079999865
F-73.987651440000036
tp167
a(F40.742887869999862
F-73.987651440000036
tp168
a(F40.746748659999859
F-73.987651440000036
tp169
a(F40.750609449999857
F-73.987651440000036
tp170
a(F40.754470239999854
F-73.987651440000036
tp171
a(F40.758331029999852
F-73.987651440000036
tp172
a(F40.762191819999849
F-73.987651440000036
tp173
a(F40.766052609999846
F-73.987651440000036
tp174
a(F40.769913399999844
F-73.987651440000036
tp175
a(F40.773774189999841
F-73.987651440000036
tp176
a(F40.777634979999839
F-73.987651440000036
tp177
a(F40.781495769999836
F-73.987651440000036
tp178
a(F40.785356559999833
F-73.987651440000036
tp179
a(F40.789217349999831
F-73.987651440000036
tp180
a(F40.793078139999828
F-73.987651440000036
tp181
a(F40.673393649999909
F-73.981801220000037
tp182
a(F40.677254439999906
F-73.981801220000037
tp183
a(F40.681115229999904
F-73.981801220000037
tp184
a(F40.684976019999901
F-73.981801220000037
tp185
a(F40.688836809999898
F-73.981801220000037
tp186
a(F40.692697599999896
F-73.981801220000037
tp187
a(F40.696558389999893
F-73.981801220000037
tp188
a(F40.700419179999891
F-73.981801220000037
tp189
a(F40.704279969999888
F-73.981801220000037
tp190
a(F40.708140759999885
F-73.981801220000037
tp191
a(F40.712001549999883
F-73.981801220000037
tp192
a(F40.71586233999988
F-73.981801220000037
tp193
a(F40.719723129999878
F-73.981801220000037
tp194
a(F40.723583919999875
F-73.981801220000037
tp195
a(F40.727444709999872
F-73.981801220000037
tp196
a(F40.73130549999987
F-73.981801220000037
tp197
a(F40.735166289999867
F-73.981801220000037
tp198
a(F40.739027079999865
F-73.981801220000037
tp199
a(F40.742887869999862
F-73.981801220000037
tp200
a(F40.746748659999859
F-73.981801220000037
tp201
a(F40.750609449999857
F-73.981801220000037
tp202
a(F40.754470239999854
F-73.981801220000037
tp203
a(F40.758331029999852
F-73.981801220000037
tp204
a(F40.762191819999849
F-73.981801220000037
tp205
a(F40.766052609999846
F-73.981801220000037
tp206
a(F40.769913399999844
F-73.981801220000037
tp207
a(F40.773774189999841
F-73.981801220000037
tp208
a(F40.777634979999839
F-73.981801220000037
tp209
a(F40.781495769999836
F-73.981801220000037
tp210
a(F40.785356559999833
F-73.981801220000037
tp211
a(F40.789217349999831
F-73.981801220000037
tp212
a(F40.793078139999828
F-73.981801220000037
tp213
a(F40.796938929999826
F-73.981801220000037
tp214
a(F40.800799719999823
F-73.981801220000037
tp215
a(F40.673393649999909
F-73.975951000000038
tp216
a(F40.677254439999906
F-73.975951000000038
tp217
a(F40.681115229999904
F-73.975951000000038
tp218
a(F40.684976019999901
F-73.975951000000038
tp219
a(F40.688836809999898
F-73.975951000000038
tp220
a(F40.692697599999896
F-73.975951000000038
tp221
a(F40.696558389999893
F-73.975951000000038
tp222
a(F40.700419179999891
F-73.975951000000038
tp223
a(F40.704279969999888
F-73.975951000000038
tp224
a(F40.708140759999885
F-73.975951000000038
tp225
a(F40.712001549999883
F-73.975951000000038
tp226
a(F40.71586233999988
F-73.975951000000038
tp227
a(F40.719723129999878
F-73.975951000000038
tp228
a(F40.723583919999875
F-73.975951000000038
tp229
a(F40.727444709999872
F-73.975951000000038
tp230
a(F40.73130549999987
F-73.975951000000038
tp231
a(F40.735166289999867
F-73.975951000000038
tp232
a(F40.739027079999865
F-73.975951000000038
tp233
a(F40.742887869999862
F-73.975951000000038
tp234
a(F40.746748659999859
F-73.975951000000038
tp235
a(F40.750609449999857
F-73.975951000000038
tp236
a(F40.754470239999854
F-73.975951000000038
tp237
a(F40.758331029999852
F-73.975951000000038
tp238
a(F40.762191819999849
F-73.975951000000038
tp239
a(F40.766052609999846
F-73.975951000000038
tp240
a(F40.769913399999844
F-73.975951000000038
tp241
a(F40.773774189999841
F-73.975951000000038
tp242
a(F40.777634979999839
F-73.975951000000038
tp243
a(F40.781495769999836
F-73.975951000000038
tp244
a(F40.785356559999833
F-73.975951000000038
tp245
a(F40.789217349999831
F-73.975951000000038
tp246
a(F40.793078139999828
F-73.975951000000038
tp247
a(F40.796938929999826
F-73.975951000000038
tp248
a(F40.800799719999823
F-73.975951000000038
tp249
a(F40.80466050999982
F-73.975951000000038
tp250
a(F40.673393649999909
F-73.970100780000038
tp251
a(F40.677254439999906
F-73.970100780000038
tp252
a(F40.681115229999904
F-73.970100780000038
tp253
a(F40.684976019999901
F-73.970100780000038
tp254
a(F40.688836809999898
F-73.970100780000038
tp255
a(F40.692697599999896
F-73.970100780000038
tp256
a(F40.696558389999893
F-73.970100780000038
tp257
a(F40.700419179999891
F-73.970100780000038
tp258
a(F40.704279969999888
F-73.970100780000038
tp259
a(F40.708140759999885
F-73.970100780000038
tp260
a(F40.712001549999883
F-73.970100780000038
tp261
a(F40.71586233999988
F-73.970100780000038
tp262
a(F40.719723129999878
F-73.970100780000038
tp263
a(F40.723583919999875
F-73.970100780000038
tp264
a(F40.727444709999872
F-73.970100780000038
tp265
a(F40.73130549999987
F-73.970100780000038
tp266
a(F40.735166289999867
F-73.970100780000038
tp267
a(F40.739027079999865
F-73.970100780000038
tp268
a(F40.742887869999862
F-73.970100780000038
tp269
a(F40.746748659999859
F-73.970100780000038
tp270
a(F40.750609449999857
F-73.970100780000038
tp271
a(F40.754470239999854
F-73.970100780000038
tp272
a(F40.758331029999852
F-73.970100780000038
tp273
a(F40.762191819999849
F-73.970100780000038
tp274
a(F40.766052609999846
F-73.970100780000038
tp275
a(F40.769913399999844
F-73.970100780000038
tp276
a(F40.773774189999841
F-73.970100780000038
tp277
a(F40.777634979999839
F-73.970100780000038
tp278
a(F40.781495769999836
F-73.970100780000038
tp279
a(F40.785356559999833
F-73.970100780000038
tp280
a(F40.789217349999831
F-73.970100780000038
tp281
a(F40.793078139999828
F-73.970100780000038
tp282
a(F40.796938929999826
F-73.970100780000038
tp283
a(F40.800799719999823
F-73.970100780000038
tp284
a(F40.80466050999982
F-73.970100780000038
tp285
a(F40.673393649999909
F-73.964250560000039
tp286
a(F40.677254439999906
F-73.964250560000039
tp287
a(F40.681115229999904
F-73.964250560000039
tp288
a(F40.684976019999901
F-73.964250560000039
tp289
a(F40.688836809999898
F-73.964250560000039
tp290
a(F40.692697599999896
F-73.964250560000039
tp291
a(F40.696558389999893
F-73.964250560000039
tp292
a(F40.700419179999891
F-73.964250560000039
tp293
a(F40.704279969999888
F-73.964250560000039
tp294
a(F40.708140759999885
F-73.964250560000039
tp295
a(F40.712001549999883
F-73.964250560000039
tp296
a(F40.71586233999988
F-73.964250560000039
tp297
a(F40.719723129999878
F-73.964250560000039
tp298
a(F40.723583919999875
F-73.964250560000039
tp299
a(F40.727444709999872
F-73.964250560000039
tp300
a(F40.73130549999987
F-73.964250560000039
tp301
a(F40.735166289999867
F-73.964250560000039
tp302
a(F40.739027079999865
F-73.964250560000039
tp303
a(F40.742887869999862
F-73.964250560000039
tp304
a(F40.746748659999859
F-73.964250560000039
tp305
a(F40.750609449999857
F-73.964250560000039
tp306
a(F40.754470239999854
F-73.964250560000039
tp307
a(F40.758331029999852
F-73.964250560000039
tp308
a(F40.762191819999849
F-73.964250560000039
tp309
a(F40.766052609999846
F-73.964250560000039
tp310
a(F40.769913399999844
F-73.964250560000039
tp311
a(F40.773774189999841
F-73.964250560000039
tp312
a(F40.777634979999839
F-73.964250560000039
tp313
a(F40.781495769999836
F-73.964250560000039
tp314
a(F40.785356559999833
F-73.964250560000039
tp315
a(F40.789217349999831
F-73.964250560000039
tp316
a(F40.793078139999828
F-73.964250560000039
tp317
a(F40.796938929999826
F-73.964250560000039
tp318
a(F40.800799719999823
F-73.964250560000039
tp319
a(F40.80466050999982
F-73.964250560000039
tp320
a(F40.673393649999909
F-73.95840034000004
tp321
a(F40.677254439999906
F-73.95840034000004
tp322
a(F40.681115229999904
F-73.95840034000004
tp323
a(F40.684976019999901
F-73.95840034000004
tp324
a(F40.688836809999898
F-73.95840034000004
tp325
a(F40.692697599999896
F-73.95840034000004
tp326
a(F40.696558389999893
F-73.95840034000004
tp327
a(F40.700419179999891
F-73.95840034000004
tp328
a(F40.704279969999888
F-73.95840034000004
tp329
a(F40.708140759999885
F-73.95840034000004
tp330
a(F40.712001549999883
F-73.95840034000004
tp331
a(F40.71586233999988
F-73.95840034000004
tp332
a(F40.719723129999878
F-73.95840034000004
tp333
a(F40.723583919999875
F-73.95840034000004
tp334
a(F40.727444709999872
F-73.95840034000004
tp335
a(F40.73130549999987
F-73.95840034000004
tp336
a(F40.735166289999867
F-73.95840034000004
tp337
a(F40.739027079999865
F-73.95840034000004
tp338
a(F40.742887869999862
F-73.95840034000004
tp339
a(F40.746748659999859
F-73.95840034000004
tp340
a(F40.750609449999857
F-73.95840034000004
tp341
a(F40.754470239999854
F-73.95840034000004
tp342
a(F40.758331029999852
F-73.95840034000004
tp343
a(F40.762191819999849
F-73.95840034000004
tp344
a(F40.766052609999846
F-73.95840034000004
tp345
a(F40.769913399999844
F-73.95840034000004
tp346
a(F40.773774189999841
F-73.95840034000004
tp347
a(F40.777634979999839
F-73.95840034000004
tp348
a(F40.781495769999836
F-73.95840034000004
tp349
a(F40.785356559999833
F-73.95840034000004
tp350
a(F40.789217349999831
F-73.95840034000004
tp351
a(F40.793078139999828
F-73.95840034000004
tp352
a(F40.796938929999826
F-73.95840034000004
tp353
a(F40.800799719999823
F-73.95840034000004
tp354
a(F40.80466050999982
F-73.95840034000004
tp355
a(F40.673393649999909
F-73.952550120000041
tp356
a(F40.677254439999906
F-73.952550120000041
tp357
a(F40.681115229999904
F-73.952550120000041
tp358
a(F40.684976019999901
F-73.952550120000041
tp359
a(F40.688836809999898
F-73.952550120000041
tp360
a(F40.692697599999896
F-73.952550120000041
tp361
a(F40.696558389999893
F-73.952550120000041
tp362
a(F40.700419179999891
F-73.952550120000041
tp363
a(F40.704279969999888
F-73.952550120000041
tp364
a(F40.708140759999885
F-73.952550120000041
tp365
a(F40.712001549999883
F-73.952550120000041
tp366
a(F40.71586233999988
F-73.952550120000041
tp367
a(F40.719723129999878
F-73.952550120000041
tp368
a(F40.723583919999875
F-73.952550120000041
tp369
a(F40.727444709999872
F-73.952550120000041
tp370
a(F40.73130549999987
F-73.952550120000041
tp371
a(F40.735166289999867
F-73.952550120000041
tp372
a(F40.739027079999865
F-73.952550120000041
tp373
a(F40.742887869999862
F-73.952550120000041
tp374
a(F40.746748659999859
F-73.952550120000041
tp375
a(F40.750609449999857
F-73.952550120000041
tp376
a(F40.754470239999854
F-73.952550120000041
tp377
a(F40.758331029999852
F-73.952550120000041
tp378
a(F40.762191819999849
F-73.952550120000041
tp379
a(F40.766052609999846
F-73.952550120000041
tp380
a(F40.769913399999844
F-73.952550120000041
tp381
a(F40.773774189999841
F-73.952550120000041
tp382
a(F40.777634979999839
F-73.952550120000041
tp383
a(F40.781495769999836
F-73.952550120000041
tp384
a(F40.785356559999833
F-73.952550120000041
tp385
a(F40.789217349999831
F-73.952550120000041
tp386
a(F40.793078139999828
F-73.952550120000041
tp387
a(F40.796938929999826
F-73.952550120000041
tp388
a(F40.800799719999823
F-73.952550120000041
tp389
a(F40.80466050999982
F-73.952550120000041
tp390
a(F40.673393649999909
F-73.946699900000041
tp391
a(F40.677254439999906
F-73.946699900000041
tp392
a(F40.681115229999904
F-73.946699900000041
tp393
a(F40.684976019999901
F-73.946699900000041
tp394
a(F40.688836809999898
F-73.946699900000041
tp395
a(F40.692697599999896
F-73.946699900000041
tp396
a(F40.696558389999893
F-73.946699900000041
tp397
a(F40.700419179999891
F-73.946699900000041
tp398
a(F40.704279969999888
F-73.946699900000041
tp399
a(F40.708140759999885
F-73.946699900000041
tp400
a(F40.712001549999883
F-73.946699900000041
tp401
a(F40.71586233999988
F-73.946699900000041
tp402
a(F40.719723129999878
F-73.946699900000041
tp403
a(F40.723583919999875
F-73.946699900000041
tp404
a(F40.727444709999872
F-73.946699900000041
tp405
a(F40.73130549999987
F-73.946699900000041
tp406
a(F40.735166289999867
F-73.946699900000041
tp407
a(F40.739027079999865
F-73.946699900000041
tp408
a(F40.742887869999862
F-73.946699900000041
tp409
a(F40.746748659999859
F-73.946699900000041
tp410
a(F40.750609449999857
F-73.946699900000041
tp411
a(F40.754470239999854
F-73.946699900000041
tp412
a(F40.758331029999852
F-73.946699900000041
tp413
a(F40.762191819999849
F-73.946699900000041
tp414
a(F40.766052609999846
F-73.946699900000041
tp415
a(F40.769913399999844
F-73.946699900000041
tp416
a(F40.773774189999841
F-73.946699900000041
tp417
a(F40.777634979999839
F-73.946699900000041
tp418
a(F40.781495769999836
F-73.946699900000041
tp419
a(F40.785356559999833
F-73.946699900000041
tp420
a(F40.789217349999831
F-73.946699900000041
tp421
a(F40.793078139999828
F-73.946699900000041
tp422
a(F40.796938929999826
F-73.946699900000041
tp423
a(F40.800799719999823
F-73.946699900000041
tp424
a(F40.80466050999982
F-73.946699900000041
tp425
a(F40.673393649999909
F-73.940849680000042
tp426
a(F40.677254439999906
F-73.940849680000042
tp427
a(F40.681115229999904
F-73.940849680000042
tp428
a(F40.684976019999901
F-73.940849680000042
tp429
a(F40.688836809999898
F-73.940849680000042
tp430
a(F40.692697599999896
F-73.940849680000042
tp431
a(F40.696558389999893
F-73.940849680000042
tp432
a(F40.700419179999891
F-73.940849680000042
tp433
a(F40.704279969999888
F-73.940849680000042
tp434
a(F40.708140759999885
F-73.940849680000042
tp435
a(F40.712001549999883
F-73.940849680000042
tp436
a(F40.71586233999988
F-73.940849680000042
tp437
a(F40.719723129999878
F-73.940849680000042
tp438
a(F40.723583919999875
F-73.940849680000042
tp439
a(F40.727444709999872
F-73.940849680000042
tp440
a(F40.73130549999987
F-73.940849680000042
tp441
a(F40.735166289999867
F-73.940849680000042
tp442
a(F40.739027079999865
F-73.940849680000042
tp443
a(F40.742887869999862
F-73.940849680000042
tp444
a(F40.746748659999859
F-73.940849680000042
tp445
a(F40.750609449999857
F-73.940849680000042
tp446
a(F40.754470239999854
F-73.940849680000042
tp447
a(F40.758331029999852
F-73.940849680000042
tp448
a(F40.762191819999849
F-73.940849680000042
tp449
a(F40.766052609999846
F-73.940849680000042
tp450
a(F40.769913399999844
F-73.940849680000042
tp451
a(F40.773774189999841
F-73.940849680000042
tp452
a(F40.777634979999839
F-73.940849680000042
tp453
a(F40.781495769999836
F-73.940849680000042
tp454
a(F40.785356559999833
F-73.940849680000042
tp455
a(F40.789217349999831
F-73.940849680000042
tp456
a(F40.793078139999828
F-73.940849680000042
tp457
a(F40.796938929999826
F-73.940849680000042
tp458
a(F40.800799719999823
F-73.940849680000042
tp459
a(F40.80466050999982
F-73.940849680000042
tp460
a(F40.673393649999909
F-73.934999460000043
tp461
a(F40.677254439999906
F-73.934999460000043
tp462
a(F40.681115229999904
F-73.934999460000043
tp463
a(F40.684976019999901
F-73.934999460000043
tp464
a(F40.688836809999898
F-73.934999460000043
tp465
a(F40.692697599999896
F-73.934999460000043
tp466
a(F40.696558389999893
F-73.934999460000043
tp467
a(F40.700419179999891
F-73.934999460000043
tp468
a(F40.704279969999888
F-73.934999460000043
tp469
a(F40.708140759999885
F-73.934999460000043
tp470
a(F40.712001549999883
F-73.934999460000043
tp471
a(F40.71586233999988
F-73.934999460000043
tp472
a(F40.719723129999878
F-73.934999460000043
tp473
a(F40.723583919999875
F-73.934999460000043
tp474
a(F40.727444709999872
F-73.934999460000043
tp475
a(F40.73130549999987
F-73.934999460000043
tp476
a(F40.735166289999867
F-73.934999460000043
tp477
a(F40.739027079999865
F-73.934999460000043
tp478
a(F40.742887869999862
F-73.934999460000043
tp479
a(F40.746748659999859
F-73.934999460000043
tp480
a(F40.750609449999857
F-73.934999460000043
tp481
a(F40.754470239999854
F-73.934999460000043
tp482
a(F40.758331029999852
F-73.934999460000043
tp483
a(F40.762191819999849
F-73.934999460000043
tp484
a(F40.766052609999846
F-73.934999460000043
tp485
a(F40.769913399999844
F-73.934999460000043
tp486
a(F40.773774189999841
F-73.934999460000043
tp487
a(F40.777634979999839
F-73.934999460000043
tp488
a(F40.781495769999836
F-73.934999460000043
tp489
a(F40.785356559999833
F-73.934999460000043
tp490
a(F40.789217349999831
F-73.934999460000043
tp491
a(F40.793078139999828
F-73.934999460000043
tp492
a(F40.796938929999826
F-73.934999460000043
tp493
a(F40.800799719999823
F-73.934999460000043
tp494
a(F40.80466050999982
F-73.934999460000043
tp495
a(F40.673393649999909
F-73.929149240000044
tp496
a(F40.677254439999906
F-73.929149240000044
tp497
a(F40.681115229999904
F-73.929149240000044
tp498
a(F40.684976019999901
F-73.929149240000044
tp499
a(F40.688836809999898
F-73.929149240000044
tp500
a(F40.692697599999896
F-73.929149240000044
tp501
a(F40.696558389999893
F-73.929149240000044
tp502
a(F40.700419179999891
F-73.929149240000044
tp503
a(F40.704279969999888
F-73.929149240000044
tp504
a(F40.708140759999885
F-73.929149240000044
tp505
a(F40.712001549999883
F-73.929149240000044
tp506
a(F40.71586233999988
F-73.929149240000044
tp507
a(F40.719723129999878
F-73.929149240000044
tp508
a(F40.723583919999875
F-73.929149240000044
tp509
a(F40.727444709999872
F-73.929149240000044
tp510
a(F40.73130549999987
F-73.929149240000044
tp511
a(F40.735166289999867
F-73.929149240000044
tp512
a(F40.739027079999865
F-73.929149240000044
tp513
a(F40.742887869999862
F-73.929149240000044
tp514
a(F40.746748659999859
F-73.929149240000044
tp515
a(F40.750609449999857
F-73.929149240000044
tp516
a(F40.754470239999854
F-73.929149240000044
tp517
a(F40.758331029999852
F-73.929149240000044
tp518
a(F40.762191819999849
F-73.929149240000044
tp519
a(F40.766052609999846
F-73.929149240000044
tp520
a(F40.769913399999844
F-73.929149240000044
tp521
a(F40.773774189999841
F-73.929149240000044
tp522
a(F40.777634979999839
F-73.929149240000044
tp523
a(F40.781495769999836
F-73.929149240000044
tp524
a(F40.785356559999833
F-73.929149240000044
tp525
a(F40.789217349999831
F-73.929149240000044
tp526
a(F40.793078139999828
F-73.929149240000044
tp527
a(F40.796938929999826
F-73.929149240000044
tp528
a(F40.800799719999823
F-73.929149240000044
tp529
a(F40.80466050999982
F-73.929149240000044
tp530
a(F40.673393649999909
F-73.923299020000044
tp531
a(F40.677254439999906
F-73.923299020000044
tp532
a(F40.681115229999904
F-73.923299020000044
tp533
a(F40.684976019999901
F-73.923299020000044
tp534
a(F40.688836809999898
F-73.923299020000044
tp535
a(F40.692697599999896
F-73.923299020000044
tp536
a(F40.696558389999893
F-73.923299020000044
tp537
a(F40.700419179999891
F-73.923299020000044
tp538
a(F40.704279969999888
F-73.923299020000044
tp539
a(F40.708140759999885
F-73.923299020000044
tp540
a(F40.712001549999883
F-73.923299020000044
tp541
a(F40.71586233999988
F-73.923299020000044
tp542
a(F40.719723129999878
F-73.923299020000044
tp543
a(F40.723583919999875
F-73.923299020000044
tp544
a(F40.727444709999872
F-73.923299020000044
tp545
a(F40.73130549999987
F-73.923299020000044
tp546
a(F40.735166289999867
F-73.923299020000044
tp547
a(F40.739027079999865
F-73.923299020000044
tp548
a(F40.742887869999862
F-73.923299020000044
tp549
a(F40.746748659999859
F-73.923299020000044
tp550
a(F40.750609449999857
F-73.923299020000044
tp551
a(F40.754470239999854
F-73.923299020000044
tp552
a(F40.758331029999852
F-73.923299020000044
tp553
a(F40.762191819999849
F-73.923299020000044
tp554
a(F40.766052609999846
F-73.923299020000044
tp555
a(F40.769913399999844
F-73.923299020000044
tp556
a(F40.773774189999841
F-73.923299020000044
tp557
a(F40.777634979999839
F-73.923299020000044
tp558
a(F40.781495769999836
F-73.923299020000044
tp559
a(F40.785356559999833
F-73.923299020000044
tp560
a(F40.789217349999831
F-73.923299020000044
tp561
a(F40.793078139999828
F-73.923299020000044
tp562
a(F40.796938929999826
F-73.923299020000044
tp563
a(F40.800799719999823
F-73.923299020000044
tp564
a(F40.80466050999982
F-73.923299020000044
tp565
a(F40.673393649999909
F-73.917448800000045
tp566
a(F40.677254439999906
F-73.917448800000045
tp567
a(F40.681115229999904
F-73.917448800000045
tp568
a(F40.684976019999901
F-73.917448800000045
tp569
a(F40.688836809999898
F-73.917448800000045
tp570
a(F40.692697599999896
F-73.917448800000045
tp571
a(F40.696558389999893
F-73.917448800000045
tp572
a(F40.700419179999891
F-73.917448800000045
tp573
a(F40.704279969999888
F-73.917448800000045
tp574
a(F40.708140759999885
F-73.917448800000045
tp575
a(F40.712001549999883
F-73.917448800000045
tp576
a(F40.71586233999988
F-73.917448800000045
tp577
a(F40.719723129999878
F-73.917448800000045
tp578
a(F40.723583919999875
F-73.917448800000045
tp579
a(F40.727444709999872
F-73.917448800000045
tp580
a(F40.73130549999987
F-73.917448800000045
tp581
a(F40.735166289999867
F-73.917448800000045
tp582
a(F40.739027079999865
F-73.917448800000045
tp583
a(F40.742887869999862
F-73.917448800000045
tp584
a(F40.746748659999859
F-73.917448800000045
tp585
a(F40.750609449999857
F-73.917448800000045
tp586
a(F40.754470239999854
F-73.917448800000045
tp587
a(F40.758331029999852
F-73.917448800000045
tp588
a(F40.762191819999849
F-73.917448800000045
tp589
a(F40.766052609999846
F-73.917448800000045
tp590
a(F40.769913399999844
F-73.917448800000045
tp591
a(F40.773774189999841
F-73.917448800000045
tp592
a(F40.777634979999839
F-73.917448800000045
tp593
a(F40.781495769999836
F-73.917448800000045
tp594
a(F40.785356559999833
F-73.917448800000045
tp595
a(F40.789217349999831
F-73.917448800000045
tp596
a(F40.793078139999828
F-73.917448800000045
tp597
a(F40.796938929999826
F-73.917448800000045
tp598
a(F40.800799719999823
F-73.917448800000045
tp599
a(F40.80466050999982
F-73.917448800000045
tp600
a(F40.673393649999909
F-73.911598580000046
tp601
a(F40.677254439999906
F-73.911598580000046
tp602
a(F40.681115229999904
F-73.911598580000046
tp603
a(F40.684976019999901
F-73.911598580000046
tp604
a(F40.688836809999898
F-73.911598580000046
tp605
a(F40.692697599999896
F-73.911598580000046
tp606
a(F40.696558389999893
F-73.911598580000046
tp607
a(F40.700419179999891
F-73.911598580000046
tp608
a(F40.704279969999888
F-73.911598580000046
tp609
a(F40.708140759999885
F-73.911598580000046
tp610
a(F40.712001549999883
F-73.911598580000046
tp611
a(F40.71586233999988
F-73.911598580000046
tp612
a(F40.719723129999878
F-73.911598580000046
tp613
a(F40.723583919999875
F-73.911598580000046
tp614
a(F40.727444709999872
F-73.911598580000046
tp615
a(F40.73130549999987
F-73.911598580000046
tp616
a(F40.735166289999867
F-73.911598580000046
tp617
a(F40.739027079999865
F-73.911598580000046
tp618
a(F40.742887869999862
F-73.911598580000046
tp619
a(F40.746748659999859
F-73.911598580000046
tp620
a(F40.750609449999857
F-73.911598580000046
tp621
a(F40.754470239999854
F-73.911598580000046
tp622
a(F40.758331029999852
F-73.911598580000046
tp623
a(F40.762191819999849
F-73.911598580000046
tp624
a(F40.766052609999846
F-73.911598580000046
tp625
a(F40.769913399999844
F-73.911598580000046
tp626
a(F40.773774189999841
F-73.911598580000046
tp627
a(F40.777634979999839
F-73.911598580000046
tp628
a(F40.781495769999836
F-73.911598580000046
tp629
a(F40.785356559999833
F-73.911598580000046
tp630
a(F40.789217349999831
F-73.911598580000046
tp631
a(F40.793078139999828
F-73.911598580000046
tp632
a(F40.796938929999826
F-73.911598580000046
tp633
a(F40.800799719999823
F-73.911598580000046
tp634
a(F40.80466050999982
F-73.911598580000046
tp635
a(F40.673393649999909
F-73.905748360000047
tp636
a(F40.677254439999906
F-73.905748360000047
tp637
a(F40.681115229999904
F-73.905748360000047
tp638
a(F40.684976019999901
F-73.905748360000047
tp639
a(F40.688836809999898
F-73.905748360000047
tp640
a(F40.692697599999896
F-73.905748360000047
tp641
a(F40.696558389999893
F-73.905748360000047
tp642
a(F40.700419179999891
F-73.905748360000047
tp643
a(F40.704279969999888
F-73.905748360000047
tp644
a(F40.708140759999885
F-73.905748360000047
tp645
a(F40.712001549999883
F-73.905748360000047
tp646
a(F40.71586233999988
F-73.905748360000047
tp647
a(F40.719723129999878
F-73.905748360000047
tp648
a(F40.723583919999875
F-73.905748360000047
tp649
a(F40.727444709999872
F-73.905748360000047
tp650
a(F40.73130549999987
F-73.905748360000047
tp651
a(F40.735166289999867
F-73.905748360000047
tp652
a(F40.739027079999865
F-73.905748360000047
tp653
a(F40.742887869999862
F-73.905748360000047
tp654
a(F40.746748659999859
F-73.905748360000047
tp655
a(F40.750609449999857
F-73.905748360000047
tp656
a(F40.754470239999854
F-73.905748360000047
tp657
a(F40.758331029999852
F-73.905748360000047
tp658
a(F40.762191819999849
F-73.905748360000047
tp659
a(F40.766052609999846
F-73.905748360000047
tp660
a(F40.769913399999844
F-73.905748360000047
tp661
a(F40.773774189999841
F-73.905748360000047
tp662
a(F40.777634979999839
F-73.905748360000047
tp663
a(F40.781495769999836
F-73.905748360000047
tp664
a(F40.785356559999833
F-73.905748360000047
tp665
a(F40.789217349999831
F-73.905748360000047
tp666
a(F40.793078139999828
F-73.905748360000047
tp667
a(F40.796938929999826
F-73.905748360000047
tp668
a(F40.800799719999823
F-73.905748360000047
tp669
a(F40.80466050999982
F-73.905748360000047
tp670
a(F40.673393649999909
F-73.899898140000047
tp671
a(F40.677254439999906
F-73.899898140000047
tp672
a(F40.681115229999904
F-73.899898140000047
tp673
a(F40.684976019999901
F-73.899898140000047
tp674
a(F40.688836809999898
F-73.899898140000047
tp675
a(F40.692697599999896
F-73.899898140000047
tp676
a(F40.696558389999893
F-73.899898140000047
tp677
a(F40.700419179999891
F-73.899898140000047
tp678
a(F40.704279969999888
F-73.899898140000047
tp679
a(F40.708140759999885
F-73.899898140000047
tp680
a(F40.712001549999883
F-73.899898140000047
tp681
a(F40.71586233999988
F-73.899898140000047
tp682
a(F40.719723129999878
F-73.899898140000047
tp683
a(F40.723583919999875
F-73.899898140000047
tp684
a(F40.727444709999872
F-73.899898140000047
tp685
a(F40.73130549999987
F-73.899898140000047
tp686
a(F40.735166289999867
F-73.899898140000047
tp687
a(F40.739027079999865
F-73.899898140000047
tp688
a(F40.742887869999862
F-73.899898140000047
tp689
a(F40.746748659999859
F-73.899898140000047
tp690
a(F40.750609449999857
F-73.899898140000047
tp691
a(F40.754470239999854
F-73.899898140000047
tp692
a(F40.758331029999852
F-73.899898140000047
tp693
a(F40.762191819999849
F-73.899898140000047
tp694
a(F40.766052609999846
F-73.899898140000047
tp695
a(F40.769913399999844
F-73.899898140000047
tp696
a(F40.773774189999841
F-73.899898140000047
tp697
a(F40.777634979999839
F-73.899898140000047
tp698
a(F40.781495769999836
F-73.899898140000047
tp699
a(F40.785356559999833
F-73.899898140000047
tp700
a(F40.789217349999831
F-73.899898140000047
tp701
a(F40.793078139999828
F-73.899898140000047
tp702
a(F40.796938929999826
F-73.899898140000047
tp703
a(F40.800799719999823
F-73.899898140000047
tp704
a(F40.80466050999982
F-73.899898140000047
tp705
a(F40.673393649999909
F-73.894047920000048
tp706
a(F40.677254439999906
F-73.894047920000048
tp707
a(F40.681115229999904
F-73.894047920000048
tp708
a(F40.684976019999901
F-73.894047920000048
tp709
a(F40.688836809999898
F-73.894047920000048
tp710
a(F40.692697599999896
F-73.894047920000048
tp711
a(F40.696558389999893
F-73.894047920000048
tp712
a(F40.700419179999891
F-73.894047920000048
tp713
a(F40.704279969999888
F-73.894047920000048
tp714
a(F40.708140759999885
F-73.894047920000048
tp715
a(F40.712001549999883
F-73.894047920000048
tp716
a(F40.71586233999988
F-73.894047920000048
tp717
a(F40.719723129999878
F-73.894047920000048
tp718
a(F40.723583919999875
F-73.894047920000048
tp719
a(F40.727444709999872
F-73.894047920000048
tp720
a(F40.73130549999987
F-73.894047920000048
tp721
a(F40.735166289999867
F-73.894047920000048
tp722
a(F40.739027079999865
F-73.894047920000048
tp723
a(F40.742887869999862
F-73.894047920000048
tp724
a(F40.746748659999859
F-73.894047920000048
tp725
a(F40.750609449999857
F-73.894047920000048
tp726
a(F40.754470239999854
F-73.894047920000048
tp727
a(F40.758331029999852
F-73.894047920000048
tp728
a(F40.762191819999849
F-73.894047920000048
tp729
a(F40.766052609999846
F-73.894047920000048
tp730
a(F40.769913399999844
F-73.894047920000048
tp731
a(F40.773774189999841
F-73.894047920000048
tp732
a(F40.777634979999839
F-73.894047920000048
tp733
a(F40.781495769999836
F-73.894047920000048
tp734
a(F40.785356559999833
F-73.894047920000048
tp735
a(F40.789217349999831
F-73.894047920000048
tp736
a(F40.793078139999828
F-73.894047920000048
tp737
a(F40.796938929999826
F-73.894047920000048
tp738
a(F40.800799719999823
F-73.894047920000048
tp739
a(F40.80466050999982
F-73.894047920000048
tp740
a(F40.673393649999909
F-73.888197700000049
tp741
a(F40.677254439999906
F-73.888197700000049
tp742
a(F40.681115229999904
F-73.888197700000049
tp743
a(F40.684976019999901
F-73.888197700000049
tp744
a(F40.688836809999898
F-73.888197700000049
tp745
a(F40.692697599999896
F-73.888197700000049
tp746
a(F40.696558389999893
F-73.888197700000049
tp747
a(F40.700419179999891
F-73.888197700000049
tp748
a(F40.704279969999888
F-73.888197700000049
tp749
a(F40.708140759999885
F-73.888197700000049
tp750
a(F40.712001549999883
F-73.888197700000049
tp751
a(F40.71586233999988
F-73.888197700000049
tp752
a(F40.719723129999878
F-73.888197700000049
tp753
a(F40.723583919999875
F-73.888197700000049
tp754
a(F40.727444709999872
F-73.888197700000049
tp755
a(F40.73130549999987
F-73.888197700000049
tp756
a(F40.735166289999867
F-73.888197700000049
tp757
a(F40.739027079999865
F-73.888197700000049
tp758
a(F40.742887869999862
F-73.888197700000049
tp759
a(F40.746748659999859
F-73.888197700000049
tp760
a(F40.750609449999857
F-73.888197700000049
tp761
a(F40.754470239999854
F-73.888197700000049
tp762
a(F40.758331029999852
F-73.888197700000049
tp763
a(F40.762191819999849
F-73.888197700000049
tp764
a(F40.766052609999846
F-73.888197700000049
tp765
a(F40.769913399999844
F-73.888197700000049
tp766
a(F40.773774189999841
F-73.888197700000049
tp767
a(F40.777634979999839
F-73.888197700000049
tp768
a(F40.781495769999836
F-73.888197700000049
tp769
a(F40.785356559999833
F-73.888197700000049
tp770
a(F40.789217349999831
F-73.888197700000049
tp771
a(F40.793078139999828
F-73.888197700000049
tp772
a(F40.796938929999826
F-73.888197700000049
tp773
a(F40.800799719999823
F-73.888197700000049
tp774
a(F40.80466050999982
F-73.888197700000049
tp775
a(F40.673393649999909
F-73.88234748000005
tp776
a(F40.677254439999906
F-73.88234748000005
tp777
a(F40.681115229999904
F-73.88234748000005
tp778
a(F40.684976019999901
F-73.88234748000005
tp779
a(F40.688836809999898
F-73.88234748000005
tp780
a(F40.692697599999896
F-73.88234748000005
tp781
a(F40.696558389999893
F-73.88234748000005
tp782
a(F40.700419179999891
F-73.88234748000005
tp783
a(F40.704279969999888
F-73.88234748000005
tp784
a(F40.708140759999885
F-73.88234748000005
tp785
a(F40.712001549999883
F-73.88234748000005
tp786
a(F40.71586233999988
F-73.88234748000005
tp787
a(F40.719723129999878
F-73.88234748000005
tp788
a(F40.723583919999875
F-73.88234748000005
tp789
a(F40.727444709999872
F-73.88234748000005
tp790
a(F40.73130549999987
F-73.88234748000005
tp791
a(F40.735166289999867
F-73.88234748000005
tp792
a(F40.739027079999865
F-73.88234748000005
tp793
a(F40.742887869999862
F-73.88234748000005
tp794
a(F40.746748659999859
F-73.88234748000005
tp795
a(F40.750609449999857
F-73.88234748000005
tp796
a(F40.754470239999854
F-73.88234748000005
tp797
a(F40.758331029999852
F-73.88234748000005
tp798
a(F40.762191819999849
F-73.88234748000005
tp799
a(F40.766052609999846
F-73.88234748000005
tp800
a(F40.769913399999844
F-73.88234748000005
tp801
a(F40.773774189999841
F-73.88234748000005
tp802
a(F40.777634979999839
F-73.88234748000005
tp803
a(F40.781495769999836
F-73.88234748000005
tp804
a(F40.785356559999833
F-73.88234748000005
tp805
a(F40.789217349999831
F-73.88234748000005
tp806
a(F40.793078139999828
F-73.88234748000005
tp807
a(F40.796938929999826
F-73.88234748000005
tp808
a(F40.800799719999823
F-73.88234748000005
tp809
a(F40.80466050999982
F-73.88234748000005
tp810
a(F40.673393649999909
F-73.87649726000005
tp811
a(F40.677254439999906
F-73.87649726000005
tp812
a(F40.681115229999904
F-73.87649726000005
tp813
a(F40.684976019999901
F-73.87649726000005
tp814
a(F40.688836809999898
F-73.87649726000005
tp815
a(F40.692697599999896
F-73.87649726000005
tp816
a(F40.696558389999893
F-73.87649726000005
tp817
a(F40.700419179999891
F-73.87649726000005
tp818
a(F40.704279969999888
F-73.87649726000005
tp819
a(F40.708140759999885
F-73.87649726000005
tp820
a(F40.712001549999883
F-73.87649726000005
tp821
a(F40.71586233999988
F-73.87649726000005
tp822
a(F40.719723129999878
F-73.87649726000005
tp823
a(F40.723583919999875
F-73.87649726000005
tp824
a(F40.727444709999872
F-73.87649726000005
tp825
a(F40.73130549999987
F-73.87649726000005
tp826
a(F40.735166289999867
F-73.87649726000005
tp827
a(F40.739027079999865
F-73.87649726000005
tp828
a(F40.742887869999862
F-73.87649726000005
tp829
a(F40.746748659999859
F-73.87649726000005
tp830
a(F40.750609449999857
F-73.87649726000005
tp831
a(F40.754470239999854
F-73.87649726000005
tp832
a(F40.758331029999852
F-73.87649726000005
tp833
a(F40.762191819999849
F-73.87649726000005
tp834
a(F40.766052609999846
F-73.87649726000005
tp835
a(F40.769913399999844
F-73.87649726000005
tp836
a(F40.773774189999841
F-73.87649726000005
tp837
a(F40.777634979999839
F-73.87649726000005
tp838
a(F40.781495769999836
F-73.87649726000005
tp839
a(F40.785356559999833
F-73.87649726000005
tp840
a(F40.789217349999831
F-73.87649726000005
tp841
a(F40.793078139999828
F-73.87649726000005
tp842
a(F40.796938929999826
F-73.87649726000005
tp843
a(F40.800799719999823
F-73.87649726000005
tp844
a(F40.80466050999982
F-73.87649726000005
tp845
a(F40.673393649999909
F-73.870647040000051
tp846
a(F40.677254439999906
F-73.870647040000051
tp847
a(F40.681115229999904
F-73.870647040000051
tp848
a(F40.684976019999901
F-73.870647040000051
tp849
a(F40.688836809999898
F-73.870647040000051
tp850
a(F40.692697599999896
F-73.870647040000051
tp851
a(F40.696558389999893
F-73.870647040000051
tp852
a(F40.700419179999891
F-73.870647040000051
tp853
a(F40.704279969999888
F-73.870647040000051
tp854
a(F40.708140759999885
F-73.870647040000051
tp855
a(F40.712001549999883
F-73.870647040000051
tp856
a(F40.71586233999988
F-73.870647040000051
tp857
a(F40.719723129999878
F-73.870647040000051
tp858
a(F40.723583919999875
F-73.870647040000051
tp859
a(F40.727444709999872
F-73.870647040000051
tp860
a(F40.73130549999987
F-73.870647040000051
tp861
a(F40.735166289999867
F-73.870647040000051
tp862
a(F40.739027079999865
F-73.870647040000051
tp863
a(F40.742887869999862
F-73.870647040000051
tp864
a(F40.746748659999859
F-73.870647040000051
tp865
a(F40.750609449999857
F-73.870647040000051
tp866
a(F40.754470239999854
F-73.870647040000051
tp867
a(F40.758331029999852
F-73.870647040000051
tp868
a(F40.762191819999849
F-73.870647040000051
tp869
a(F40.766052609999846
F-73.870647040000051
tp870
a(F40.769913399999844
F-73.870647040000051
tp871
a(F40.773774189999841
F-73.870647040000051
tp872
a(F40.777634979999839
F-73.870647040000051
tp873
a(F40.781495769999836
F-73.870647040000051
tp874
a(F40.785356559999833
F-73.870647040000051
tp875
a(F40.789217349999831
F-73.870647040000051
tp876
a(F40.793078139999828
F-73.870647040000051
tp877
a(F40.796938929999826
F-73.870647040000051
tp878
a(F40.800799719999823
F-73.870647040000051
tp879
a(F40.80466050999982
F-73.870647040000051
tp880
a(F40.673393649999909
F-73.864796820000052
tp881
a(F40.677254439999906
F-73.864796820000052
tp882
a(F40.681115229999904
F-73.864796820000052
tp883
a(F40.684976019999901
F-73.864796820000052
tp884
a(F40.688836809999898
F-73.864796820000052
tp885
a(F40.692697599999896
F-73.864796820000052
tp886
a(F40.696558389999893
F-73.864796820000052
tp887
a(F40.700419179999891
F-73.864796820000052
tp888
a(F40.704279969999888
F-73.864796820000052
tp889
a(F40.708140759999885
F-73.864796820000052
tp890
a(F40.712001549999883
F-73.864796820000052
tp891
a(F40.71586233999988
F-73.864796820000052
tp892
a(F40.719723129999878
F-73.864796820000052
tp893
a(F40.723583919999875
F-73.864796820000052
tp894
a(F40.727444709999872
F-73.864796820000052
tp895
a(F40.73130549999987
F-73.864796820000052
tp896
a(F40.735166289999867
F-73.864796820000052
tp897
a(F40.739027079999865
F-73.864796820000052
tp898
a(F40.742887869999862
F-73.864796820000052
tp899
a(F40.746748659999859
F-73.864796820000052
tp900
a(F40.750609449999857
F-73.864796820000052
tp901
a(F40.754470239999854
F-73.864796820000052
tp902
a(F40.758331029999852
F-73.864796820000052
tp903
a(F40.762191819999849
F-73.864796820000052
tp904
a(F40.766052609999846
F-73.864796820000052
tp905
a(F40.769913399999844
F-73.864796820000052
tp906
a(F40.773774189999841
F-73.864796820000052
tp907
a(F40.777634979999839
F-73.864796820000052
tp908
a(F40.781495769999836
F-73.864796820000052
tp909
a(F40.785356559999833
F-73.864796820000052
tp910
a(F40.789217349999831
F-73.864796820000052
tp911
a(F40.793078139999828
F-73.864796820000052
tp912
a(F40.796938929999826
F-73.864796820000052
tp913
a(F40.800799719999823
F-73.864796820000052
tp914
a(F40.80466050999982
F-73.864796820000052
tp915
a(F40.673393649999909
F-73.858946600000053
tp916
a(F40.677254439999906
F-73.858946600000053
tp917
a(F40.681115229999904
F-73.858946600000053
tp918
a(F40.684976019999901
F-73.858946600000053
tp919
a(F40.688836809999898
F-73.858946600000053
tp920
a(F40.692697599999896
F-73.858946600000053
tp921
a(F40.696558389999893
F-73.858946600000053
tp922
a(F40.700419179999891
F-73.858946600000053
tp923
a(F40.704279969999888
F-73.858946600000053
tp924
a(F40.708140759999885
F-73.858946600000053
tp925
a(F40.712001549999883
F-73.858946600000053
tp926
a(F40.71586233999988
F-73.858946600000053
tp927
a(F40.719723129999878
F-73.858946600000053
tp928
a(F40.723583919999875
F-73.858946600000053
tp929
a(F40.727444709999872
F-73.858946600000053
tp930
a(F40.73130549999987
F-73.858946600000053
tp931
a(F40.735166289999867
F-73.858946600000053
tp932
a(F40.739027079999865
F-73.858946600000053
tp933
a(F40.742887869999862
F-73.858946600000053
tp934
a(F40.746748659999859
F-73.858946600000053
tp935
a(F40.750609449999857
F-73.858946600000053
tp936
a(F40.754470239999854
F-73.858946600000053
tp937
a(F40.758331029999852
F-73.858946600000053
tp938
a(F40.762191819999849
F-73.858946600000053
tp939
a(F40.766052609999846
F-73.858946600000053
tp940
a(F40.769913399999844
F-73.858946600000053
tp941
a(F40.773774189999841
F-73.858946600000053
tp942
a(F40.777634979999839
F-73.858946600000053
tp943
a(F40.781495769999836
F-73.858946600000053
tp944
a(F40.785356559999833
F-73.858946600000053
tp945
a(F40.789217349999831
F-73.858946600000053
tp946
a(F40.793078139999828
F-73.858946600000053
tp947
a(F40.796938929999826
F-73.858946600000053
tp948
a(F40.800799719999823
F-73.858946600000053
tp949
a(F40.80466050999982
F-73.858946600000053
tp950
a(F40.673393649999909
F-73.853096380000054
tp951
a(F40.677254439999906
F-73.853096380000054
tp952
a(F40.681115229999904
F-73.853096380000054
tp953
a(F40.684976019999901
F-73.853096380000054
tp954
a(F40.688836809999898
F-73.853096380000054
tp955
a(F40.692697599999896
F-73.853096380000054
tp956
a(F40.696558389999893
F-73.853096380000054
tp957
a(F40.700419179999891
F-73.853096380000054
tp958
a(F40.704279969999888
F-73.853096380000054
tp959
a(F40.708140759999885
F-73.853096380000054
tp960
a(F40.712001549999883
F-73.853096380000054
tp961
a(F40.71586233999988
F-73.853096380000054
tp962
a(F40.719723129999878
F-73.853096380000054
tp963
a(F40.723583919999875
F-73.853096380000054
tp964
a(F40.727444709999872
F-73.853096380000054
tp965
a(F40.73130549999987
F-73.853096380000054
tp966
a(F40.735166289999867
F-73.853096380000054
tp967
a(F40.739027079999865
F-73.853096380000054
tp968
a(F40.742887869999862
F-73.853096380000054
tp969
a(F40.746748659999859
F-73.853096380000054
tp970
a(F40.750609449999857
F-73.853096380000054
tp971
a(F40.754470239999854
F-73.853096380000054
tp972
a(F40.758331029999852
F-73.853096380000054
tp973
a(F40.762191819999849
F-73.853096380000054
tp974
a(F40.766052609999846
F-73.853096380000054
tp975
a(F40.769913399999844
F-73.853096380000054
tp976
a(F40.773774189999841
F-73.853096380000054
tp977
a(F40.777634979999839
F-73.853096380000054
tp978
a(F40.781495769999836
F-73.853096380000054
tp979
a(F40.785356559999833
F-73.853096380000054
tp980
a(F40.789217349999831
F-73.853096380000054
tp981
a(F40.793078139999828
F-73.853096380000054
tp982
a(F40.796938929999826
F-73.853096380000054
tp983
a(F40.800799719999823
F-73.853096380000054
tp984
a(F40.80466050999982
F-73.853096380000054
tp985
a(F40.673393649999909
F-73.847246160000054
tp986
a(F40.677254439999906
F-73.847246160000054
tp987
a(F40.681115229999904
F-73.847246160000054
tp988
a(F40.684976019999901
F-73.847246160000054
tp989
a(F40.688836809999898
F-73.847246160000054
tp990
a(F40.692697599999896
F-73.847246160000054
tp991
a(F40.696558389999893
F-73.847246160000054
tp992
a(F40.700419179999891
F-73.847246160000054
tp993
a(F40.704279969999888
F-73.847246160000054
tp994
a(F40.708140759999885
F-73.847246160000054
tp995
a(F40.712001549999883
F-73.847246160000054
tp996
a(F40.71586233999988
F-73.847246160000054
tp997
a(F40.719723129999878
F-73.847246160000054
tp998
a(F40.723583919999875
F-73.847246160000054
tp999
a(F40.727444709999872
F-73.847246160000054
tp1000
a(F40.73130549999987
F-73.847246160000054
tp1001
a(F40.735166289999867
F-73.847246160000054
tp1002
a(F40.739027079999865
F-73.847246160000054
tp1003
a(F40.742887869999862
F-73.847246160000054
tp1004
a(F40.746748659999859
F-73.847246160000054
tp1005
a(F40.750609449999857
F-73.847246160000054
tp1006
a(F40.754470239999854
F-73.847246160000054
tp1007
a(F40.758331029999852
F-73.847246160000054
tp1008
a(F40.762191819999849
F-73.847246160000054
tp1009
a(F40.766052609999846
F-73.847246160000054
tp1010
a(F40.769913399999844
F-73.847246160000054
tp1011
a(F40.773774189999841
F-73.847246160000054
tp1012
a(F40.777634979999839
F-73.847246160000054
tp1013
a(F40.781495769999836
F-73.847246160000054
tp1014
a(F40.785356559999833
F-73.847246160000054
tp1015
a(F40.789217349999831
F-73.847246160000054
tp1016
a(F40.793078139999828
F-73.847246160000054
tp1017
a(F40.796938929999826
F-73.847246160000054
tp1018
a(F40.800799719999823
F-73.847246160000054
tp1019
a(F40.80466050999982
F-73.847246160000054
tp1020
a(F40.673393649999909
F-73.841395940000055
tp1021
a(F40.677254439999906
F-73.841395940000055
tp1022
a(F40.681115229999904
F-73.841395940000055
tp1023
a(F40.684976019999901
F-73.841395940000055
tp1024
a(F40.688836809999898
F-73.841395940000055
tp1025
a(F40.692697599999896
F-73.841395940000055
tp1026
a(F40.696558389999893
F-73.841395940000055
tp1027
a(F40.700419179999891
F-73.841395940000055
tp1028
a(F40.704279969999888
F-73.841395940000055
tp1029
a(F40.708140759999885
F-73.841395940000055
tp1030
a(F40.712001549999883
F-73.841395940000055
tp1031
a(F40.71586233999988
F-73.841395940000055
tp1032
a(F40.719723129999878
F-73.841395940000055
tp1033
a(F40.723583919999875
F-73.841395940000055
tp1034
a(F40.727444709999872
F-73.841395940000055
tp1035
a(F40.73130549999987
F-73.841395940000055
tp1036
a(F40.735166289999867
F-73.841395940000055
tp1037
a(F40.739027079999865
F-73.841395940000055
tp1038
a(F40.742887869999862
F-73.841395940000055
tp1039
a(F40.746748659999859
F-73.841395940000055
tp1040
a(F40.750609449999857
F-73.841395940000055
tp1041
a(F40.754470239999854
F-73.841395940000055
tp1042
a(F40.758331029999852
F-73.841395940000055
tp1043
a(F40.762191819999849
F-73.841395940000055
tp1044
a(F40.766052609999846
F-73.841395940000055
tp1045
a(F40.769913399999844
F-73.841395940000055
tp1046
a(F40.773774189999841
F-73.841395940000055
tp1047
a(F40.777634979999839
F-73.841395940000055
tp1048
a(F40.781495769999836
F-73.841395940000055
tp1049
a(F40.785356559999833
F-73.841395940000055
tp1050
a(F40.789217349999831
F-73.841395940000055
tp1051
a(F40.793078139999828
F-73.841395940000055
tp1052
a(F40.796938929999826
F-73.841395940000055
tp1053
a(F40.800799719999823
F-73.841395940000055
tp1054
a(F40.80466050999982
F-73.841395940000055
tp1055
a(F40.673393649999909
F-73.835545720000056
tp1056
a(F40.677254439999906
F-73.835545720000056
tp1057
a(F40.681115229999904
F-73.835545720000056
tp1058
a(F40.684976019999901
F-73.835545720000056
tp1059
a(F40.688836809999898
F-73.835545720000056
tp1060
a(F40.692697599999896
F-73.835545720000056
tp1061
a(F40.696558389999893
F-73.835545720000056
tp1062
a(F40.700419179999891
F-73.835545720000056
tp1063
a(F40.704279969999888
F-73.835545720000056
tp1064
a(F40.708140759999885
F-73.835545720000056
tp1065
a(F40.712001549999883
F-73.835545720000056
tp1066
a(F40.71586233999988
F-73.835545720000056
tp1067
a(F40.719723129999878
F-73.835545720000056
tp1068
a(F40.723583919999875
F-73.835545720000056
tp1069
a(F40.727444709999872
F-73.835545720000056
tp1070
a(F40.73130549999987
F-73.835545720000056
tp1071
a(F40.735166289999867
F-73.835545720000056
tp1072
a(F40.739027079999865
F-73.835545720000056
tp1073
a(F40.742887869999862
F-73.835545720000056
tp1074
a(F40.746748659999859
F-73.835545720000056
tp1075
a(F40.750609449999857
F-73.835545720000056
tp1076
a(F40.754470239999854
F-73.835545720000056
tp1077
a(F40.758331029999852
F-73.835545720000056
tp1078
a(F40.762191819999849
F-73.835545720000056
tp1079
a(F40.766052609999846
F-73.835545720000056
tp1080
a(F40.769913399999844
F-73.835545720000056
tp1081
a(F40.773774189999841
F-73.835545720000056
tp1082
a(F40.777634979999839
F-73.835545720000056
tp1083
a(F40.781495769999836
F-73.835545720000056
tp1084
a(F40.785356559999833
F-73.835545720000056
tp1085
a(F40.789217349999831
F-73.835545720000056
tp1086
a(F40.793078139999828
F-73.835545720000056
tp1087
a(F40.796938929999826
F-73.835545720000056
tp1088
a(F40.800799719999823
F-73.835545720000056
tp1089
a(F40.80466050999982
F-73.835545720000056
tp1090
a(F40.673393649999909
F-73.829695500000057
tp1091
a(F40.677254439999906
F-73.829695500000057
tp1092
a(F40.681115229999904
F-73.829695500000057
tp1093
a(F40.684976019999901
F-73.829695500000057
tp1094
a(F40.688836809999898
F-73.829695500000057
tp1095
a(F40.692697599999896
F-73.829695500000057
tp1096
a(F40.696558389999893
F-73.829695500000057
tp1097
a(F40.700419179999891
F-73.829695500000057
tp1098
a(F40.704279969999888
F-73.829695500000057
tp1099
a(F40.708140759999885
F-73.829695500000057
tp1100
a(F40.712001549999883
F-73.829695500000057
tp1101
a(F40.71586233999988
F-73.829695500000057
tp1102
a(F40.719723129999878
F-73.829695500000057
tp1103
a(F40.723583919999875
F-73.829695500000057
tp1104
a(F40.727444709999872
F-73.829695500000057
tp1105
a(F40.73130549999987
F-73.829695500000057
tp1106
a(F40.735166289999867
F-73.829695500000057
tp1107
a(F40.739027079999865
F-73.829695500000057
tp1108
a(F40.742887869999862
F-73.829695500000057
tp1109
a(F40.746748659999859
F-73.829695500000057
tp1110
a(F40.750609449999857
F-73.829695500000057
tp1111
a(F40.754470239999854
F-73.829695500000057
tp1112
a(F40.758331029999852
F-73.829695500000057
tp1113
a(F40.762191819999849
F-73.829695500000057
tp1114
a(F40.766052609999846
F-73.829695500000057
tp1115
a(F40.769913399999844
F-73.829695500000057
tp1116
a(F40.773774189999841
F-73.829695500000057
tp1117
a(F40.777634979999839
F-73.829695500000057
tp1118
a(F40.781495769999836
F-73.829695500000057
tp1119
a(F40.785356559999833
F-73.829695500000057
tp1120
a(F40.789217349999831
F-73.829695500000057
tp1121
a(F40.793078139999828
F-73.829695500000057
tp1122
a(F40.796938929999826
F-73.829695500000057
tp1123
a(F40.800799719999823
F-73.829695500000057
tp1124
a(F40.80466050999982
F-73.829695500000057
tp1125
a(F40.673393649999909
F-73.823845280000057
tp1126
a(F40.677254439999906
F-73.823845280000057
tp1127
a(F40.681115229999904
F-73.823845280000057
tp1128
a(F40.684976019999901
F-73.823845280000057
tp1129
a(F40.688836809999898
F-73.823845280000057
tp1130
a(F40.692697599999896
F-73.823845280000057
tp1131
a(F40.696558389999893
F-73.823845280000057
tp1132
a(F40.700419179999891
F-73.823845280000057
tp1133
a(F40.704279969999888
F-73.823845280000057
tp1134
a(F40.708140759999885
F-73.823845280000057
tp1135
a(F40.712001549999883
F-73.823845280000057
tp1136
a(F40.71586233999988
F-73.823845280000057
tp1137
a(F40.719723129999878
F-73.823845280000057
tp1138
a(F40.723583919999875
F-73.823845280000057
tp1139
a(F40.727444709999872
F-73.823845280000057
tp1140
a(F40.73130549999987
F-73.823845280000057
tp1141
a(F40.735166289999867
F-73.823845280000057
tp1142
a(F40.739027079999865
F-73.823845280000057
tp1143
a(F40.742887869999862
F-73.823845280000057
tp1144
a(F40.746748659999859
F-73.823845280000057
tp1145
a(F40.750609449999857
F-73.823845280000057
tp1146
a(F40.754470239999854
F-73.823845280000057
tp1147
a(F40.758331029999852
F-73.823845280000057
tp1148
a(F40.762191819999849
F-73.823845280000057
tp1149
a(F40.766052609999846
F-73.823845280000057
tp1150
a(F40.769913399999844
F-73.823845280000057
tp1151
a(F40.773774189999841
F-73.823845280000057
tp1152
a(F40.777634979999839
F-73.823845280000057
tp1153
a(F40.781495769999836
F-73.823845280000057
tp1154
a(F40.785356559999833
F-73.823845280000057
tp1155
a(F40.789217349999831
F-73.823845280000057
tp1156
a(F40.793078139999828
F-73.823845280000057
tp1157
a(F40.796938929999826
F-73.823845280000057
tp1158
a(F40.800799719999823
F-73.823845280000057
tp1159
a(F40.80466050999982
F-73.823845280000057
tp1160
a(F40.673393649999909
F-73.817995060000058
tp1161
a(F40.677254439999906
F-73.817995060000058
tp1162
a(F40.681115229999904
F-73.817995060000058
tp1163
a(F40.684976019999901
F-73.817995060000058
tp1164
a(F40.688836809999898
F-73.817995060000058
tp1165
a(F40.692697599999896
F-73.817995060000058
tp1166
a(F40.696558389999893
F-73.817995060000058
tp1167
a(F40.700419179999891
F-73.817995060000058
tp1168
a(F40.704279969999888
F-73.817995060000058
tp1169
a(F40.708140759999885
F-73.817995060000058
tp1170
a(F40.712001549999883
F-73.817995060000058
tp1171
a(F40.71586233999988
F-73.817995060000058
tp1172
a(F40.719723129999878
F-73.817995060000058
tp1173
a(F40.723583919999875
F-73.817995060000058
tp1174
a(F40.727444709999872
F-73.817995060000058
tp1175
a(F40.73130549999987
F-73.817995060000058
tp1176
a(F40.735166289999867
F-73.817995060000058
tp1177
a(F40.739027079999865
F-73.817995060000058
tp1178
a(F40.742887869999862
F-73.817995060000058
tp1179
a(F40.746748659999859
F-73.817995060000058
tp1180
a(F40.750609449999857
F-73.817995060000058
tp1181
a(F40.754470239999854
F-73.817995060000058
tp1182
a(F40.758331029999852
F-73.817995060000058
tp1183
a(F40.762191819999849
F-73.817995060000058
tp1184
a(F40.766052609999846
F-73.817995060000058
tp1185
a(F40.769913399999844
F-73.817995060000058
tp1186
a(F40.773774189999841
F-73.817995060000058
tp1187
a(F40.777634979999839
F-73.817995060000058
tp1188
a(F40.781495769999836
F-73.817995060000058
tp1189
a(F40.785356559999833
F-73.817995060000058
tp1190
a(F40.789217349999831
F-73.817995060000058
tp1191
a(F40.793078139999828
F-73.817995060000058
tp1192
a(F40.796938929999826
F-73.817995060000058
tp1193
a(F40.800799719999823
F-73.817995060000058
tp1194
a(F40.80466050999982
F-73.817995060000058
tp1195
a(F40.673393649999909
F-73.812144840000059
tp1196
a(F40.677254439999906
F-73.812144840000059
tp1197
a(F40.681115229999904
F-73.812144840000059
tp1198
a(F40.684976019999901
F-73.812144840000059
tp1199
a(F40.688836809999898
F-73.812144840000059
tp1200
a(F40.692697599999896
F-73.812144840000059
tp1201
a(F40.696558389999893
F-73.812144840000059
tp1202
a(F40.700419179999891
F-73.812144840000059
tp1203
a(F40.704279969999888
F-73.812144840000059
tp1204
a(F40.708140759999885
F-73.812144840000059
tp1205
a(F40.712001549999883
F-73.812144840000059
tp1206
a(F40.71586233999988
F-73.812144840000059
tp1207
a(F40.719723129999878
F-73.812144840000059
tp1208
a(F40.723583919999875
F-73.812144840000059
tp1209
a(F40.727444709999872
F-73.812144840000059
tp1210
a(F40.73130549999987
F-73.812144840000059
tp1211
a(F40.735166289999867
F-73.812144840000059
tp1212
a(F40.739027079999865
F-73.812144840000059
tp1213
a(F40.742887869999862
F-73.812144840000059
tp1214
a(F40.746748659999859
F-73.812144840000059
tp1215
a(F40.750609449999857
F-73.812144840000059
tp1216
a(F40.754470239999854
F-73.812144840000059
tp1217
a(F40.758331029999852
F-73.812144840000059
tp1218
a(F40.762191819999849
F-73.812144840000059
tp1219
a(F40.766052609999846
F-73.812144840000059
tp1220
a(F40.769913399999844
F-73.812144840000059
tp1221
a(F40.773774189999841
F-73.812144840000059
tp1222
a(F40.777634979999839
F-73.812144840000059
tp1223
a(F40.781495769999836
F-73.812144840000059
tp1224
a(F40.785356559999833
F-73.812144840000059
tp1225
a(F40.789217349999831
F-73.812144840000059
tp1226
a(F40.793078139999828
F-73.812144840000059
tp1227
a(F40.796938929999826
F-73.812144840000059
tp1228
a(F40.800799719999823
F-73.812144840000059
tp1229
a(F40.80466050999982
F-73.812144840000059
tp1230
a(F40.673393649999909
F-73.80629462000006
tp1231
a(F40.677254439999906
F-73.80629462000006
tp1232
a(F40.681115229999904
F-73.80629462000006
tp1233
a(F40.684976019999901
F-73.80629462000006
tp1234
a(F40.688836809999898
F-73.80629462000006
tp1235
a(F40.692697599999896
F-73.80629462000006
tp1236
a(F40.696558389999893
F-73.80629462000006
tp1237
a(F40.700419179999891
F-73.80629462000006
tp1238
a(F40.704279969999888
F-73.80629462000006
tp1239
a(F40.708140759999885
F-73.80629462000006
tp1240
a(F40.712001549999883
F-73.80629462000006
tp1241
a(F40.71586233999988
F-73.80629462000006
tp1242
a(F40.719723129999878
F-73.80629462000006
tp1243
a(F40.723583919999875
F-73.80629462000006
tp1244
a(F40.727444709999872
F-73.80629462000006
tp1245
a(F40.73130549999987
F-73.80629462000006
tp1246
a(F40.735166289999867
F-73.80629462000006
tp1247
a(F40.739027079999865
F-73.80629462000006
tp1248
a(F40.742887869999862
F-73.80629462000006
tp1249
a(F40.746748659999859
F-73.80629462000006
tp1250
a(F40.750609449999857
F-73.80629462000006
tp1251
a(F40.754470239999854
F-73.80629462000006
tp1252
a(F40.758331029999852
F-73.80629462000006
tp1253
a(F40.762191819999849
F-73.80629462000006
tp1254
a(F40.766052609999846
F-73.80629462000006
tp1255
a(F40.769913399999844
F-73.80629462000006
tp1256
a(F40.773774189999841
F-73.80629462000006
tp1257
a(F40.777634979999839
F-73.80629462000006
tp1258
a(F40.781495769999836
F-73.80629462000006
tp1259
a(F40.785356559999833
F-73.80629462000006
tp1260
a(F40.789217349999831
F-73.80629462000006
tp1261
a(F40.793078139999828
F-73.80629462000006
tp1262
a(F40.796938929999826
F-73.80629462000006
tp1263
a(F40.800799719999823
F-73.80629462000006
tp1264
a(F40.80466050999982
F-73.80629462000006
tp1265
a(F40.673393649999909
F-73.80044440000006
tp1266
a(F40.677254439999906
F-73.80044440000006
tp1267
a(F40.681115229999904
F-73.80044440000006
tp1268
a(F40.684976019999901
F-73.80044440000006
tp1269
a(F40.688836809999898
F-73.80044440000006
tp1270
a(F40.692697599999896
F-73.80044440000006
tp1271
a(F40.696558389999893
F-73.80044440000006
tp1272
a(F40.700419179999891
F-73.80044440000006
tp1273
a(F40.704279969999888
F-73.80044440000006
tp1274
a(F40.708140759999885
F-73.80044440000006
tp1275
a(F40.712001549999883
F-73.80044440000006
tp1276
a(F40.71586233999988
F-73.80044440000006
tp1277
a(F40.719723129999878
F-73.80044440000006
tp1278
a(F40.723583919999875
F-73.80044440000006
tp1279
a(F40.727444709999872
F-73.80044440000006
tp1280
a(F40.73130549999987
F-73.80044440000006
tp1281
a(F40.735166289999867
F-73.80044440000006
tp1282
a(F40.739027079999865
F-73.80044440000006
tp1283
a(F40.742887869999862
F-73.80044440000006
tp1284
a(F40.746748659999859
F-73.80044440000006
tp1285
a(F40.750609449999857
F-73.80044440000006
tp1286
a(F40.754470239999854
F-73.80044440000006
tp1287
a(F40.758331029999852
F-73.80044440000006
tp1288
a(F40.762191819999849
F-73.80044440000006
tp1289
a(F40.766052609999846
F-73.80044440000006
tp1290
a(F40.769913399999844
F-73.80044440000006
tp1291
a(F40.773774189999841
F-73.80044440000006
tp1292
a(F40.777634979999839
F-73.80044440000006
tp1293
a(F40.781495769999836
F-73.80044440000006
tp1294
a(F40.785356559999833
F-73.80044440000006
tp1295
a(F40.789217349999831
F-73.80044440000006
tp1296
a(F40.793078139999828
F-73.80044440000006
tp1297
a(F40.796938929999826
F-73.80044440000006
tp1298
a(F40.800799719999823
F-73.80044440000006
tp1299
a(F40.80466050999982
F-73.80044440000006
tp1300
a(F40.673393649999909
F-73.794594180000061
tp1301
a(F40.677254439999906
F-73.794594180000061
tp1302
a(F40.681115229999904
F-73.794594180000061
tp1303
a(F40.684976019999901
F-73.794594180000061
tp1304
a(F40.688836809999898
F-73.794594180000061
tp1305
a(F40.692697599999896
F-73.794594180000061
tp1306
a(F40.696558389999893
F-73.794594180000061
tp1307
a(F40.700419179999891
F-73.794594180000061
tp1308
a(F40.704279969999888
F-73.794594180000061
tp1309
a(F40.708140759999885
F-73.794594180000061
tp1310
a(F40.712001549999883
F-73.794594180000061
tp1311
a(F40.71586233999988
F-73.794594180000061
tp1312
a(F40.719723129999878
F-73.794594180000061
tp1313
a(F40.723583919999875
F-73.794594180000061
tp1314
a(F40.727444709999872
F-73.794594180000061
tp1315
a(F40.73130549999987
F-73.794594180000061
tp1316
a(F40.735166289999867
F-73.794594180000061
tp1317
a(F40.739027079999865
F-73.794594180000061
tp1318
a(F40.742887869999862
F-73.794594180000061
tp1319
a(F40.746748659999859
F-73.794594180000061
tp1320
a(F40.750609449999857
F-73.794594180000061
tp1321
a(F40.754470239999854
F-73.794594180000061
tp1322
a(F40.758331029999852
F-73.794594180000061
tp1323
a(F40.762191819999849
F-73.794594180000061
tp1324
a(F40.766052609999846
F-73.794594180000061
tp1325
a(F40.769913399999844
F-73.794594180000061
tp1326
a(F40.773774189999841
F-73.794594180000061
tp1327
a(F40.777634979999839
F-73.794594180000061
tp1328
a(F40.781495769999836
F-73.794594180000061
tp1329
a(F40.785356559999833
F-73.794594180000061
tp1330
a(F40.789217349999831
F-73.794594180000061
tp1331
a(F40.793078139999828
F-73.794594180000061
tp1332
a(F40.796938929999826
F-73.794594180000061
tp1333
a(F40.800799719999823
F-73.794594180000061
tp1334
a(F40.80466050999982
F-73.794594180000061
tp1335
a(F40.673393649999909
F-73.788743960000062
tp1336
a(F40.677254439999906
F-73.788743960000062
tp1337
a(F40.681115229999904
F-73.788743960000062
tp1338
a(F40.684976019999901
F-73.788743960000062
tp1339
a(F40.688836809999898
F-73.788743960000062
tp1340
a(F40.692697599999896
F-73.788743960000062
tp1341
a(F40.696558389999893
F-73.788743960000062
tp1342
a(F40.700419179999891
F-73.788743960000062
tp1343
a(F40.704279969999888
F-73.788743960000062
tp1344
a(F40.708140759999885
F-73.788743960000062
tp1345
a(F40.712001549999883
F-73.788743960000062
tp1346
a(F40.71586233999988
F-73.788743960000062
tp1347
a(F40.719723129999878
F-73.788743960000062
tp1348
a(F40.723583919999875
F-73.788743960000062
tp1349
a(F40.727444709999872
F-73.788743960000062
tp1350
a(F40.73130549999987
F-73.788743960000062
tp1351
a(F40.735166289999867
F-73.788743960000062
tp1352
a(F40.739027079999865
F-73.788743960000062
tp1353
a(F40.742887869999862
F-73.788743960000062
tp1354
a(F40.746748659999859
F-73.788743960000062
tp1355
a(F40.750609449999857
F-73.788743960000062
tp1356
a(F40.754470239999854
F-73.788743960000062
tp1357
a(F40.758331029999852
F-73.788743960000062
tp1358
a(F40.762191819999849
F-73.788743960000062
tp1359
a(F40.766052609999846
F-73.788743960000062
tp1360
a(F40.769913399999844
F-73.788743960000062
tp1361
a(F40.773774189999841
F-73.788743960000062
tp1362
a(F40.777634979999839
F-73.788743960000062
tp1363
a(F40.781495769999836
F-73.788743960000062
tp1364
a(F40.785356559999833
F-73.788743960000062
tp1365
a(F40.789217349999831
F-73.788743960000062
tp1366
a(F40.793078139999828
F-73.788743960000062
tp1367
a(F40.796938929999826
F-73.788743960000062
tp1368
a(F40.800799719999823
F-73.788743960000062
tp1369
a(F40.80466050999982
F-73.788743960000062
tp1370
a(F40.673393649999909
F-73.782893740000063
tp1371
a(F40.677254439999906
F-73.782893740000063
tp1372
a(F40.681115229999904
F-73.782893740000063
tp1373
a(F40.684976019999901
F-73.782893740000063
tp1374
a(F40.688836809999898
F-73.782893740000063
tp1375
a(F40.692697599999896
F-73.782893740000063
tp1376
a(F40.696558389999893
F-73.782893740000063
tp1377
a(F40.700419179999891
F-73.782893740000063
tp1378
a(F40.704279969999888
F-73.782893740000063
tp1379
a(F40.708140759999885
F-73.782893740000063
tp1380
a(F40.712001549999883
F-73.782893740000063
tp1381
a(F40.71586233999988
F-73.782893740000063
tp1382
a(F40.719723129999878
F-73.782893740000063
tp1383
a(F40.723583919999875
F-73.782893740000063
tp1384
a(F40.727444709999872
F-73.782893740000063
tp1385
a(F40.73130549999987
F-73.782893740000063
tp1386
a(F40.735166289999867
F-73.782893740000063
tp1387
a(F40.739027079999865
F-73.782893740000063
tp1388
a(F40.742887869999862
F-73.782893740000063
tp1389
a(F40.746748659999859
F-73.782893740000063
tp1390
a(F40.750609449999857
F-73.782893740000063
tp1391
a(F40.754470239999854
F-73.782893740000063
tp1392
a(F40.758331029999852
F-73.782893740000063
tp1393
a(F40.762191819999849
F-73.782893740000063
tp1394
a(F40.766052609999846
F-73.782893740000063
tp1395
a(F40.769913399999844
F-73.782893740000063
tp1396
a(F40.773774189999841
F-73.782893740000063
tp1397
a(F40.777634979999839
F-73.782893740000063
tp1398
a(F40.781495769999836
F-73.782893740000063
tp1399
a(F40.785356559999833
F-73.782893740000063
tp1400
a(F40.789217349999831
F-73.782893740000063
tp1401
a(F40.793078139999828
F-73.782893740000063
tp1402
a(F40.796938929999826
F-73.782893740000063
tp1403
a(F40.800799719999823
F-73.782893740000063
tp1404
a(F40.80466050999982
F-73.782893740000063
tp1405
a(F40.673393649999909
F-73.777043520000063
tp1406
a(F40.677254439999906
F-73.777043520000063
tp1407
a(F40.681115229999904
F-73.777043520000063
tp1408
a(F40.684976019999901
F-73.777043520000063
tp1409
a(F40.688836809999898
F-73.777043520000063
tp1410
a(F40.692697599999896
F-73.777043520000063
tp1411
a(F40.696558389999893
F-73.777043520000063
tp1412
a(F40.700419179999891
F-73.777043520000063
tp1413
a(F40.704279969999888
F-73.777043520000063
tp1414
a(F40.708140759999885
F-73.777043520000063
tp1415
a(F40.712001549999883
F-73.777043520000063
tp1416
a(F40.71586233999988
F-73.777043520000063
tp1417
a(F40.719723129999878
F-73.777043520000063
tp1418
a(F40.723583919999875
F-73.777043520000063
tp1419
a(F40.727444709999872
F-73.777043520000063
tp1420
a(F40.73130549999987
F-73.777043520000063
tp1421
a(F40.735166289999867
F-73.777043520000063
tp1422
a(F40.739027079999865
F-73.777043520000063
tp1423
a(F40.742887869999862
F-73.777043520000063
tp1424
a(F40.746748659999859
F-73.777043520000063
tp1425
a(F40.750609449999857
F-73.777043520000063
tp1426
a(F40.754470239999854
F-73.777043520000063
tp1427
a(F40.758331029999852
F-73.777043520000063
tp1428
a(F40.762191819999849
F-73.777043520000063
tp1429
a(F40.766052609999846
F-73.777043520000063
tp1430
a(F40.769913399999844
F-73.777043520000063
tp1431
a(F40.773774189999841
F-73.777043520000063
tp1432
a(F40.777634979999839
F-73.777043520000063
tp1433
a(F40.781495769999836
F-73.777043520000063
tp1434
a(F40.785356559999833
F-73.777043520000063
tp1435
a(F40.789217349999831
F-73.777043520000063
tp1436
a(F40.793078139999828
F-73.777043520000063
tp1437
a(F40.796938929999826
F-73.777043520000063
tp1438
a(F40.800799719999823
F-73.777043520000063
tp1439
a(F40.80466050999982
F-73.777043520000063
tp1440
a(F40.673393649999909
F-73.771193300000064
tp1441
a(F40.677254439999906
F-73.771193300000064
tp1442
a(F40.681115229999904
F-73.771193300000064
tp1443
a(F40.684976019999901
F-73.771193300000064
tp1444
a(F40.688836809999898
F-73.771193300000064
tp1445
a(F40.692697599999896
F-73.771193300000064
tp1446
a(F40.696558389999893
F-73.771193300000064
tp1447
a(F40.700419179999891
F-73.771193300000064
tp1448
a(F40.704279969999888
F-73.771193300000064
tp1449
a(F40.708140759999885
F-73.771193300000064
tp1450
a(F40.712001549999883
F-73.771193300000064
tp1451
a(F40.71586233999988
F-73.771193300000064
tp1452
a(F40.719723129999878
F-73.771193300000064
tp1453
a(F40.723583919999875
F-73.771193300000064
tp1454
a(F40.727444709999872
F-73.771193300000064
tp1455
a(F40.73130549999987
F-73.771193300000064
tp1456
a(F40.735166289999867
F-73.771193300000064
tp1457
a(F40.739027079999865
F-73.771193300000064
tp1458
a(F40.742887869999862
F-73.771193300000064
tp1459
a(F40.746748659999859
F-73.771193300000064
tp1460
a(F40.750609449999857
F-73.771193300000064
tp1461
a(F40.754470239999854
F-73.771193300000064
tp1462
a(F40.758331029999852
F-73.771193300000064
tp1463
a(F40.762191819999849
F-73.771193300000064
tp1464
a(F40.766052609999846
F-73.771193300000064
tp1465
a(F40.769913399999844
F-73.771193300000064
tp1466
a(F40.773774189999841
F-73.771193300000064
tp1467
a(F40.777634979999839
F-73.771193300000064
tp1468
a(F40.781495769999836
F-73.771193300000064
tp1469
a(F40.785356559999833
F-73.771193300000064
tp1470
a(F40.789217349999831
F-73.771193300000064
tp1471
a(F40.793078139999828
F-73.771193300000064
tp1472
a(F40.796938929999826
F-73.771193300000064
tp1473
a(F40.800799719999823
F-73.771193300000064
tp1474
a(F40.673393649999909
F-73.765343080000065
tp1475
a(F40.677254439999906
F-73.765343080000065
tp1476
a(F40.681115229999904
F-73.765343080000065
tp1477
a(F40.684976019999901
F-73.765343080000065
tp1478
a(F40.688836809999898
F-73.765343080000065
tp1479
a(F40.692697599999896
F-73.765343080000065
tp1480
a(F40.696558389999893
F-73.765343080000065
tp1481
a(F40.700419179999891
F-73.765343080000065
tp1482
a(F40.704279969999888
F-73.765343080000065
tp1483
a(F40.708140759999885
F-73.765343080000065
tp1484
a(F40.712001549999883
F-73.765343080000065
tp1485
a(F40.71586233999988
F-73.765343080000065
tp1486
a(F40.719723129999878
F-73.765343080000065
tp1487
a(F40.723583919999875
F-73.765343080000065
tp1488
a(F40.727444709999872
F-73.765343080000065
tp1489
a(F40.73130549999987
F-73.765343080000065
tp1490
a(F40.735166289999867
F-73.765343080000065
tp1491
a(F40.739027079999865
F-73.765343080000065
tp1492
a(F40.742887869999862
F-73.765343080000065
tp1493
a(F40.746748659999859
F-73.765343080000065
tp1494
a(F40.750609449999857
F-73.765343080000065
tp1495
a(F40.754470239999854
F-73.765343080000065
tp1496
a(F40.758331029999852
F-73.765343080000065
tp1497
a(F40.762191819999849
F-73.765343080000065
tp1498
a(F40.766052609999846
F-73.765343080000065
tp1499
a(F40.769913399999844
F-73.765343080000065
tp1500
a(F40.773774189999841
F-73.765343080000065
tp1501
a(F40.777634979999839
F-73.765343080000065
tp1502
a(F40.781495769999836
F-73.765343080000065
tp1503
a(F40.785356559999833
F-73.765343080000065
tp1504
a(F40.789217349999831
F-73.765343080000065
tp1505
a(F40.793078139999828
F-73.765343080000065
tp1506
a(F40.796938929999826
F-73.765343080000065
tp1507
a(F40.673393649999909
F-73.759492860000066
tp1508
a(F40.677254439999906
F-73.759492860000066
tp1509
a(F40.681115229999904
F-73.759492860000066
tp1510
a(F40.684976019999901
F-73.759492860000066
tp1511
a(F40.688836809999898
F-73.759492860000066
tp1512
a(F40.692697599999896
F-73.759492860000066
tp1513
a(F40.696558389999893
F-73.759492860000066
tp1514
a(F40.700419179999891
F-73.759492860000066
tp1515
a(F40.704279969999888
F-73.759492860000066
tp1516
a(F40.708140759999885
F-73.759492860000066
tp1517
a(F40.712001549999883
F-73.759492860000066
tp1518
a(F40.71586233999988
F-73.759492860000066
tp1519
a(F40.719723129999878
F-73.759492860000066
tp1520
a(F40.723583919999875
F-73.759492860000066
tp1521
a(F40.727444709999872
F-73.759492860000066
tp1522
a(F40.73130549999987
F-73.759492860000066
tp1523
a(F40.735166289999867
F-73.759492860000066
tp1524
a(F40.739027079999865
F-73.759492860000066
tp1525
a(F40.742887869999862
F-73.759492860000066
tp1526
a(F40.746748659999859
F-73.759492860000066
tp1527
a(F40.750609449999857
F-73.759492860000066
tp1528
a(F40.754470239999854
F-73.759492860000066
tp1529
a(F40.758331029999852
F-73.759492860000066
tp1530
a(F40.762191819999849
F-73.759492860000066
tp1531
a(F40.766052609999846
F-73.759492860000066
tp1532
a(F40.769913399999844
F-73.759492860000066
tp1533
a(F40.773774189999841
F-73.759492860000066
tp1534
a(F40.777634979999839
F-73.759492860000066
tp1535
a(F40.781495769999836
F-73.759492860000066
tp1536
a(F40.785356559999833
F-73.759492860000066
tp1537
a(F40.789217349999831
F-73.759492860000066
tp1538
a(F40.673393649999909
F-73.753642640000066
tp1539
a(F40.677254439999906
F-73.753642640000066
tp1540
a(F40.681115229999904
F-73.753642640000066
tp1541
a(F40.684976019999901
F-73.753642640000066
tp1542
a(F40.688836809999898
F-73.753642640000066
tp1543
a(F40.692697599999896
F-73.753642640000066
tp1544
a(F40.696558389999893
F-73.753642640000066
tp1545
a(F40.700419179999891
F-73.753642640000066
tp1546
a(F40.704279969999888
F-73.753642640000066
tp1547
a(F40.708140759999885
F-73.753642640000066
tp1548
a(F40.712001549999883
F-73.753642640000066
tp1549
a(F40.71586233999988
F-73.753642640000066
tp1550
a(F40.719723129999878
F-73.753642640000066
tp1551
a(F40.723583919999875
F-73.753642640000066
tp1552
a(F40.727444709999872
F-73.753642640000066
tp1553
a(F40.73130549999987
F-73.753642640000066
tp1554
a(F40.735166289999867
F-73.753642640000066
tp1555
a(F40.739027079999865
F-73.753642640000066
tp1556
a(F40.742887869999862
F-73.753642640000066
tp1557
a(F40.746748659999859
F-73.753642640000066
tp1558
a(F40.750609449999857
F-73.753642640000066
tp1559
a(F40.754470239999854
F-73.753642640000066
tp1560
a(F40.758331029999852
F-73.753642640000066
tp1561
a(F40.762191819999849
F-73.753642640000066
tp1562
a(F40.766052609999846
F-73.753642640000066
tp1563
a(F40.769913399999844
F-73.753642640000066
tp1564
a(F40.773774189999841
F-73.753642640000066
tp1565
a(F40.777634979999839
F-73.753642640000066
tp1566
a(F40.781495769999836
F-73.753642640000066
tp1567
a(F40.785356559999833
F-73.753642640000066
tp1568
a(F40.673393649999909
F-73.747792420000067
tp1569
a(F40.677254439999906
F-73.747792420000067
tp1570
a(F40.681115229999904
F-73.747792420000067
tp1571
a(F40.684976019999901
F-73.747792420000067
tp1572
a(F40.688836809999898
F-73.747792420000067
tp1573
a(F40.692697599999896
F-73.747792420000067
tp1574
a(F40.696558389999893
F-73.747792420000067
tp1575
a(F40.700419179999891
F-73.747792420000067
tp1576
a(F40.704279969999888
F-73.747792420000067
tp1577
a(F40.708140759999885
F-73.747792420000067
tp1578
a(F40.712001549999883
F-73.747792420000067
tp1579
a(F40.71586233999988
F-73.747792420000067
tp1580
a(F40.719723129999878
F-73.747792420000067
tp1581
a(F40.723583919999875
F-73.747792420000067
tp1582
a(F40.727444709999872
F-73.747792420000067
tp1583
a(F40.73130549999987
F-73.747792420000067
tp1584
a(F40.735166289999867
F-73.747792420000067
tp1585
a(F40.739027079999865
F-73.747792420000067
tp1586
a(F40.742887869999862
F-73.747792420000067
tp1587
a(F40.746748659999859
F-73.747792420000067
tp1588
a(F40.750609449999857
F-73.747792420000067
tp1589
a(F40.754470239999854
F-73.747792420000067
tp1590
a(F40.758331029999852
F-73.747792420000067
tp1591
a(F40.762191819999849
F-73.747792420000067
tp1592
a(F40.766052609999846
F-73.747792420000067
tp1593
a(F40.769913399999844
F-73.747792420000067
tp1594
a(F40.773774189999841
F-73.747792420000067
tp1595
a(F40.777634979999839
F-73.747792420000067
tp1596
a(F40.673393649999909
F-73.741942200000068
tp1597
a(F40.677254439999906
F-73.741942200000068
tp1598
a(F40.681115229999904
F-73.741942200000068
tp1599
a(F40.684976019999901
F-73.741942200000068
tp1600
a(F40.688836809999898
F-73.741942200000068
tp1601
a(F40.692697599999896
F-73.741942200000068
tp1602
a(F40.696558389999893
F-73.741942200000068
tp1603
a(F40.700419179999891
F-73.741942200000068
tp1604
a(F40.704279969999888
F-73.741942200000068
tp1605
a(F40.708140759999885
F-73.741942200000068
tp1606
a(F40.712001549999883
F-73.741942200000068
tp1607
a(F40.71586233999988
F-73.741942200000068
tp1608
a(F40.719723129999878
F-73.741942200000068
tp1609
a(F40.723583919999875
F-73.741942200000068
tp1610
a(F40.727444709999872
F-73.741942200000068
tp1611
a(F40.73130549999987
F-73.741942200000068
tp1612
a(F40.735166289999867
F-73.741942200000068
tp1613
a(F40.739027079999865
F-73.741942200000068
tp1614
a(F40.742887869999862
F-73.741942200000068
tp1615
a(F40.746748659999859
F-73.741942200000068
tp1616
a(F40.750609449999857
F-73.741942200000068
tp1617
a(F40.754470239999854
F-73.741942200000068
tp1618
a(F40.758331029999852
F-73.741942200000068
tp1619
a(F40.762191819999849
F-73.741942200000068
tp1620
a(F40.766052609999846
F-73.741942200000068
tp1621
a(F40.769913399999844
F-73.741942200000068
tp1622
a(F40.773774189999841
F-73.741942200000068
tp1623
a(F40.673393649999909
F-73.736091980000069
tp1624
a(F40.677254439999906
F-73.736091980000069
tp1625
a(F40.681115229999904
F-73.736091980000069
tp1626
a(F40.684976019999901
F-73.736091980000069
tp1627
a(F40.688836809999898
F-73.736091980000069
tp1628
a(F40.692697599999896
F-73.736091980000069
tp1629
a(F40.696558389999893
F-73.736091980000069
tp1630
a(F40.700419179999891
F-73.736091980000069
tp1631
a(F40.704279969999888
F-73.736091980000069
tp1632
a(F40.708140759999885
F-73.736091980000069
tp1633
a(F40.712001549999883
F-73.736091980000069
tp1634
a(F40.71586233999988
F-73.736091980000069
tp1635
a(F40.719723129999878
F-73.736091980000069
tp1636
a(F40.723583919999875
F-73.736091980000069
tp1637
a(F40.727444709999872
F-73.736091980000069
tp1638
a(F40.73130549999987
F-73.736091980000069
tp1639
a(F40.735166289999867
F-73.736091980000069
tp1640
a(F40.739027079999865
F-73.736091980000069
tp1641
a(F40.742887869999862
F-73.736091980000069
tp1642
a(F40.746748659999859
F-73.736091980000069
tp1643
a(F40.750609449999857
F-73.736091980000069
tp1644
a(F40.754470239999854
F-73.736091980000069
tp1645
a(F40.758331029999852
F-73.736091980000069
tp1646
a(F40.762191819999849
F-73.736091980000069
tp1647
a(F40.766052609999846
F-73.736091980000069
tp1648
a(F40.769913399999844
F-73.736091980000069
tp1649
a(F40.773774189999841
F-73.736091980000069
tp1650
a(F40.673393649999909
F-73.730241760000069
tp1651
a(F40.677254439999906
F-73.730241760000069
tp1652
a(F40.681115229999904
F-73.730241760000069
tp1653
a(F40.684976019999901
F-73.730241760000069
tp1654
a(F40.688836809999898
F-73.730241760000069
tp1655
a(F40.692697599999896
F-73.730241760000069
tp1656
a(F40.696558389999893
F-73.730241760000069
tp1657
a(F40.700419179999891
F-73.730241760000069
tp1658
a(F40.704279969999888
F-73.730241760000069
tp1659
a(F40.708140759999885
F-73.730241760000069
tp1660
a(F40.712001549999883
F-73.730241760000069
tp1661
a(F40.71586233999988
F-73.730241760000069
tp1662
a(F40.719723129999878
F-73.730241760000069
tp1663
a(F40.723583919999875
F-73.730241760000069
tp1664
a(F40.727444709999872
F-73.730241760000069
tp1665
a(F40.73130549999987
F-73.730241760000069
tp1666
a(F40.735166289999867
F-73.730241760000069
tp1667
a(F40.739027079999865
F-73.730241760000069
tp1668
a(F40.742887869999862
F-73.730241760000069
tp1669
a(F40.746748659999859
F-73.730241760000069
tp1670
a(F40.750609449999857
F-73.730241760000069
tp1671
a(F40.754470239999854
F-73.730241760000069
tp1672
a(F40.758331029999852
F-73.730241760000069
tp1673
a(F40.762191819999849
F-73.730241760000069
tp1674
a(F40.766052609999846
F-73.730241760000069
tp1675
a(F40.769913399999844
F-73.730241760000069
tp1676
a(F40.727444709999872
F-73.72439154000007
tp1677
a(F40.73130549999987
F-73.72439154000007
tp1678
a(F40.735166289999867
F-73.72439154000007
tp1679
a(F40.739027079999865
F-73.72439154000007
tp1680
a(F40.742887869999862
F-73.72439154000007
tp1681
a(F40.746748659999859
F-73.72439154000007
tp1682
a(F40.750609449999857
F-73.72439154000007
tp1683
a(F40.754470239999854
F-73.72439154000007
tp1684
a(F40.758331029999852
F-73.72439154000007
tp1685
a(F40.762191819999849
F-73.72439154000007
tp1686
a(F40.766052609999846
F-73.72439154000007
tp1687
a(F40.727444709999872
F-73.718541320000071
tp1688
a(F40.73130549999987
F-73.718541320000071
tp1689
a(F40.735166289999867
F-73.718541320000071
tp1690
a(F40.739027079999865
F-73.718541320000071
tp1691
a(F40.742887869999862
F-73.718541320000071
tp1692
a(F40.746748659999859
F-73.718541320000071
tp1693
a(F40.750609449999857
F-73.718541320000071
tp1694
a(F40.754470239999854
F-73.718541320000071
tp1695
a(F40.758331029999852
F-73.718541320000071
tp1696
a(F40.762191819999849
F-73.718541320000071
tp1697
a(F40.727444709999872
F-73.712691100000072
tp1698
a(F40.73130549999987
F-73.712691100000072
tp1699
a(F40.735166289999867
F-73.712691100000072
tp1700
a(F40.739027079999865
F-73.712691100000072
tp1701
a(F40.742887869999862
F-73.712691100000072
tp1702
a(F40.746748659999859
F-73.712691100000072
tp1703
a(F40.750609449999857
F-73.712691100000072
tp1704
a(F40.754470239999854
F-73.712691100000072
tp1705
a(F40.758331029999852
F-73.712691100000072
tp1706
a(F40.73130549999987
F-73.706840880000073
tp1707
a(F40.735166289999867
F-73.706840880000073
tp1708
a(F40.739027079999865
F-73.706840880000073
tp1709
a(F40.742887869999862
F-73.706840880000073
tp1710
a(F40.746748659999859
F-73.706840880000073
tp1711
a(F40.750609449999857
F-73.706840880000073
tp1712
a(F40.754470239999854
F-73.706840880000073
tp1713
a(F40.739027079999865
F-73.700990660000073
tp1714
a(F40.742887869999862
F-73.700990660000073
tp1715
a(F40.746748659999859
F-73.700990660000073
tp1716
a.