(dp0
S'mae'
p1
cnumpy.core.multiarray
scalar
p2
(cnumpy
dtype
p3
(S'f8'
p4
I0
I1
tp5
Rp6
(I3
S'<'
p7
NNNI-1
I-1
I0
tp8
bS'\xde\xa9\xd2\x89h\r\x83@'
p9
tp10
Rp11
sS'rmse'
p12
g2
(g6
S'\xcdl0a\xa6m\x8b@'
p13
tp14
Rp15
s.