(dp0
S'gcv_rmse'
p1
cnumpy.core.multiarray
scalar
p2
(cnumpy
dtype
p3
(S'f8'
p4
I0
I1
tp5
Rp6
(I3
S'<'
p7
NNNI-1
I-1
I0
tp8
bS'\x89/=\x91p]\x80@'
p9
tp10
Rp11
sS'rcv_mae'
p12
g2
(g6
S'\xac\xf9(\xe9\xdf\xb3s@'
p13
tp14
Rp15
sS'gcv_mae'
p16
g2
(g6
S"'\xb4\x98A8\x9ds@"
p17
tp18
Rp19
sS'rcv_rmse'
p20
g2
(g6
S'G\x86yzW\xfa\x7f@'
p21
tp22
Rp23
s.