(dp0
S'mae'
p1
cnumpy.core.multiarray
scalar
p2
(cnumpy
dtype
p3
(S'f8'
p4
I0
I1
tp5
Rp6
(I3
S'<'
p7
NNNI-1
I-1
I0
tp8
bS'\xc1\x18\x06\xf3\xd1\x02s@'
p9
tp10
Rp11
sS'rmse'
p12
g2
(g6
S'\x12\x9b\xb3\x0b=_\x7f@'
p13
tp14
Rp15
s.